                              1 ;--------------------------------------------------------
                              2 ; File Created by SDCC : free open source ANSI-C Compiler
                              3 ; Version 3.4.0 #8981 (Jul 12 2014) (Linux)
                              4 ; This file was generated Fri Dec  4 17:16:32 2015
                              5 ;--------------------------------------------------------
                              6 	.module main
                              7 	.optsdcc -mz80
                              8 	
                              9 ;--------------------------------------------------------
                             10 ; Public variables in this module
                             11 ;--------------------------------------------------------
                             12 	.globl _main
                             13 	.globl _isr_vector38
                             14 	.globl _isr_vector66
                             15 	.globl _isprint
                             16 	.globl _jug
                             17 	.globl _rana4
                             18 	.globl _rana3
                             19 	.globl _rana2
                             20 	.globl _rana
                             21 	.globl _cuadroMorado
                             22 	.globl ___ret_aux
                             23 	.globl _io_write
                             24 	.globl _io_read
                             25 	.globl _io_write_buffer
                             26 	.globl _io_read_buffer
                             27 	.globl _uart_init
                             28 	.globl _uart_set_baudrate
                             29 	.globl _uart_write
                             30 	.globl _uart_read
                             31 	.globl _uart_print
                             32 	.globl _uart_read_line
                             33 	.globl _uart_disable_interrupts
                             34 	.globl _uart_enable_interrupts
                             35 	.globl _ppi_init
                             36 	.globl _ppi_set_portc_bit
                             37 	.globl _ppi_clear_portc_bit
                             38 	.globl _delay_10us
                             39 	.globl _delay_100us
                             40 	.globl _delay_ms
                             41 	.globl _putchar
                             42 	.globl _getchar
                             43 	.globl _system_init
                             44 	.globl _lcd_init
                             45 	.globl _writeRegister24
                             46 	.globl _writeRegister32
                             47 	.globl _writeRegister16
                             48 	.globl _write8
                             49 	.globl _setAddrWindow
                             50 	.globl _reset
                             51 	.globl _fillScreen
                             52 	.globl _flood
                             53 	.globl _drawPixel
                             54 	.globl _fillRect
                             55 	.globl _drawGraf
                             56 	.globl _pintaSprite
                             57 	.globl _color565
                             58 	.globl _init_pantalla
                             59 	.globl _pintaAzul
                             60 	.globl _pintaNegro
                             61 	.globl _pintaBarra
                             62 	.globl _repinta_rana
                             63 ;--------------------------------------------------------
                             64 ; special function registers
                             65 ;--------------------------------------------------------
                     0010    66 _URRBR	=	0x0010
                     0010    67 _URTHR	=	0x0010
                     0011    68 _URIER	=	0x0011
                     0012    69 _URIIR	=	0x0012
                     0013    70 _URLCR	=	0x0013
                     0015    71 _URLSR	=	0x0015
                     0014    72 _URMCR	=	0x0014
                     0016    73 _URMSR	=	0x0016
                     0010    74 _URDLL	=	0x0010
                     0011    75 _URDLM	=	0x0011
                     0040    76 _PPI_PORTA	=	0x0040
                     0041    77 _PPI_PORTB	=	0x0041
                     0042    78 _PPI_PORTC	=	0x0042
                     0043    79 _PPI_CTRL	=	0x0043
                             80 ;--------------------------------------------------------
                             81 ; ram data
                             82 ;--------------------------------------------------------
                             83 	.area _DATA
   0000                      84 ___ret_aux::
   0000                      85 	.ds 1
   0001                      86 _cuadroMorado::
   0001                      87 	.ds 800
   0321                      88 _rana::
   0321                      89 	.ds 800
   0641                      90 _rana2::
   0641                      91 	.ds 800
   0961                      92 _rana3::
   0961                      93 	.ds 800
   0C81                      94 _rana4::
   0C81                      95 	.ds 800
   0FA1                      96 _jug::
   0FA1                      97 	.ds 6
                             98 ;--------------------------------------------------------
                             99 ; ram data
                            100 ;--------------------------------------------------------
                            101 	.area _INITIALIZED
   0000                     102 _width:
   0000                     103 	.ds 2
   0002                     104 _height:
   0002                     105 	.ds 2
   0004                     106 _header_data:
   0004                     107 	.ds 2
   0006                     108 _width_Rana:
   0006                     109 	.ds 2
   0008                     110 _height_Rana:
   0008                     111 	.ds 2
   000A                     112 _header_Rana:
   000A                     113 	.ds 2
   000C                     114 _width_Rana2:
   000C                     115 	.ds 2
   000E                     116 _height_Rana2:
   000E                     117 	.ds 2
   0010                     118 _header_Rana2:
   0010                     119 	.ds 2
   0012                     120 _width_Rana3:
   0012                     121 	.ds 2
   0014                     122 _height_Rana3:
   0014                     123 	.ds 2
   0016                     124 _header_Rana3:
   0016                     125 	.ds 2
   0018                     126 _width_Rana4:
   0018                     127 	.ds 2
   001A                     128 _height_Rana4:
   001A                     129 	.ds 2
   001C                     130 _header_Rana4:
   001C                     131 	.ds 2
                            132 ;--------------------------------------------------------
                            133 ; absolute external ram data
                            134 ;--------------------------------------------------------
                            135 	.area _DABS (ABS)
                            136 ;--------------------------------------------------------
                            137 ; global & static initialisations
                            138 ;--------------------------------------------------------
                            139 	.area _HOME
                            140 	.area _GSINIT
                            141 	.area _GSFINAL
                            142 	.area _GSINIT
                            143 ;--------------------------------------------------------
                            144 ; Home
                            145 ;--------------------------------------------------------
                            146 	.area _HOME
                            147 	.area _HOME
                            148 ;--------------------------------------------------------
                            149 ; code
                            150 ;--------------------------------------------------------
                            151 	.area _CODE
                            152 ;smz80.h:631: void io_write(char port_addr, char data){
                            153 ;	---------------------------------
                            154 ; Function io_write
                            155 ; ---------------------------------
   0000                     156 _io_write_start::
   0000                     157 _io_write:
                            158 ;smz80.h:642: __endasm;
   0000 DD 21 02 00   [14]  159 	ld ix, #2
   0004 DD 39         [15]  160 	add ix,sp
   0006 DD 4E 00      [19]  161 	ld c, (ix)
   0009 DD 23         [10]  162 	inc ix
   000B DD 7E 00      [19]  163 	ld a,(ix)
   000E ED 79         [12]  164 	out (c), a
   0010 C9            [10]  165 	ret
   0011                     166 _io_write_end::
                            167 ;smz80.h:649: char io_read(char port_addr){
                            168 ;	---------------------------------
                            169 ; Function io_read
                            170 ; ---------------------------------
   0011                     171 _io_read_start::
   0011                     172 _io_read:
                            173 ;smz80.h:661: __endasm;
   0011 DD 21 02 00   [14]  174 	LD IX, #2
   0015 DD 39         [15]  175 	ADD IX,SP
   0017 DD 4E 00      [19]  176 	LD C, (IX)
   001A ED 78         [12]  177 	IN A,(C)
   001C 32r00r00      [13]  178 	LD (___ret_aux),A
                            179 ;smz80.h:663: return __ret_aux;
   001F FD 21r00r00   [14]  180 	ld	iy,#___ret_aux
   0023 FD 6E 00      [19]  181 	ld	l,0 (iy)
   0026 C9            [10]  182 	ret
   0027                     183 _io_read_end::
                            184 ;smz80.h:666: void io_write_buffer(char port_addr, char* buffer_out, char count){
                            185 ;	---------------------------------
                            186 ; Function io_write_buffer
                            187 ; ---------------------------------
   0027                     188 _io_write_buffer_start::
   0027                     189 _io_write_buffer:
                            190 ;smz80.h:682: __endasm;
   0027 DD 21 02 00   [14]  191 	LD IX, #2
   002B DD 39         [15]  192 	ADD IX,SP
   002D DD 4E 00      [19]  193 	LD C, (IX)
   0030 DD 23         [10]  194 	INC IX
   0032 DD 6E 00      [19]  195 	LD L,(IX)
   0035 DD 23         [10]  196 	INC IX
   0037 DD 66 00      [19]  197 	LD H,(IX)
   003A DD 23         [10]  198 	INC IX
   003C DD 46 00      [19]  199 	LD B,(IX)
   003F ED B3         [21]  200 	OTIR
   0041 C9            [10]  201 	ret
   0042                     202 _io_write_buffer_end::
                            203 ;smz80.h:685: void io_read_buffer(char port_addr, char* buffer_in, char count){
                            204 ;	---------------------------------
                            205 ; Function io_read_buffer
                            206 ; ---------------------------------
   0042                     207 _io_read_buffer_start::
   0042                     208 _io_read_buffer:
                            209 ;smz80.h:702: __endasm;
   0042 DD 21 02 00   [14]  210 	LD IX, #2
   0046 DD 39         [15]  211 	ADD IX,SP
   0048 DD 4E 00      [19]  212 	LD C, (IX)
   004B DD 23         [10]  213 	INC IX
   004D DD 6E 00      [19]  214 	LD L,(IX)
   0050 DD 23         [10]  215 	INC IX
   0052 DD 66 00      [19]  216 	LD H,(IX)
   0055 DD 23         [10]  217 	INC IX
   0057 DD 46 00      [19]  218 	LD B,(IX)
   005A ED B2         [21]  219 	INIR
   005C C9            [10]  220 	ret
   005D                     221 _io_read_buffer_end::
                            222 ;smz80.h:705: void uart_init(const uart_cfg_t *uart_config){
                            223 ;	---------------------------------
                            224 ; Function uart_init
                            225 ; ---------------------------------
   005D                     226 _uart_init_start::
   005D                     227 _uart_init:
   005D DD E5         [15]  228 	push	ix
   005F DD 21 00 00   [14]  229 	ld	ix,#0
   0063 DD 39         [15]  230 	add	ix,sp
                            231 ;smz80.h:708: uart_set_baudrate(uart_config->baudrate);
   0065 DD 5E 04      [19]  232 	ld	e,4 (ix)
   0068 DD 56 05      [19]  233 	ld	d,5 (ix)
   006B 1A            [ 7]  234 	ld	a,(de)
   006C D5            [11]  235 	push	de
   006D F5            [11]  236 	push	af
   006E 33            [ 6]  237 	inc	sp
   006F CDr93r00      [17]  238 	call	_uart_set_baudrate
   0072 33            [ 6]  239 	inc	sp
   0073 D1            [10]  240 	pop	de
                            241 ;smz80.h:710: URIER = uart_config->interrupt;
   0074 6B            [ 4]  242 	ld	l, e
   0075 62            [ 4]  243 	ld	h, d
   0076 01 04 00      [10]  244 	ld	bc, #0x0004
   0079 09            [11]  245 	add	hl, bc
   007A 7E            [ 7]  246 	ld	a,(hl)
   007B D3 11         [11]  247 	out	(_URIER),a
                            248 ;smz80.h:712: URLCR = (uart_config->stop_bits) | (uart_config->parity) | (uart_config->word_length);
   007D 6B            [ 4]  249 	ld	l, e
   007E 62            [ 4]  250 	ld	h, d
   007F 23            [ 6]  251 	inc	hl
   0080 46            [ 7]  252 	ld	b,(hl)
   0081 6B            [ 4]  253 	ld	l, e
   0082 62            [ 4]  254 	ld	h, d
   0083 23            [ 6]  255 	inc	hl
   0084 23            [ 6]  256 	inc	hl
   0085 7E            [ 7]  257 	ld	a,(hl)
   0086 B0            [ 4]  258 	or	a, b
   0087 62            [ 4]  259 	ld	h,d
   0088 6B            [ 4]  260 	ld	l, e
   0089 23            [ 6]  261 	inc	hl
   008A 23            [ 6]  262 	inc	hl
   008B 23            [ 6]  263 	inc	hl
   008C 56            [ 7]  264 	ld	d,(hl)
   008D B2            [ 4]  265 	or	a, d
   008E D3 13         [11]  266 	out	(_URLCR),a
   0090 DD E1         [14]  267 	pop	ix
   0092 C9            [10]  268 	ret
   0093                     269 _uart_init_end::
                            270 ;smz80.h:715: void uart_set_baudrate(const uart_baudrate_t baudrate){
                            271 ;	---------------------------------
                            272 ; Function uart_set_baudrate
                            273 ; ---------------------------------
   0093                     274 _uart_set_baudrate_start::
   0093                     275 _uart_set_baudrate:
                            276 ;smz80.h:718: URLCR |= BV(UDLAB);
   0093 DB 13         [11]  277 	in	a,(_URLCR)
   0095 CB FF         [ 8]  278 	set	7, a
   0097 D3 13         [11]  279 	out	(_URLCR),a
                            280 ;smz80.h:720: URDLL = baudrate;
   0099 21 02 00      [10]  281 	ld	hl, #2+0
   009C 39            [11]  282 	add	hl, sp
   009D 7E            [ 7]  283 	ld	a, (hl)
   009E D3 10         [11]  284 	out	(_URDLL),a
                            285 ;smz80.h:722: URDLM = ((uint16_t)baudrate)>>8;
   00A0 3E 00         [ 7]  286 	ld	a, #0x00
   00A2 D3 11         [11]  287 	out	(_URDLM),a
                            288 ;smz80.h:724: URLCR &= ~BV(UDLAB);
   00A4 DB 13         [11]  289 	in	a,(_URLCR)
   00A6 E6 7F         [ 7]  290 	and	a, #0x7F
   00A8 D3 13         [11]  291 	out	(_URLCR),a
   00AA C9            [10]  292 	ret
   00AB                     293 _uart_set_baudrate_end::
                            294 ;smz80.h:727: void uart_write(char c){
                            295 ;	---------------------------------
                            296 ; Function uart_write
                            297 ; ---------------------------------
   00AB                     298 _uart_write_start::
   00AB                     299 _uart_write:
                            300 ;smz80.h:730: while( !(URLSR & BV(UTHRE)))
   00AB                     301 00101$:
   00AB DB 15         [11]  302 	in	a,(_URLSR)
   00AD E6 20         [ 7]  303 	and	a, #0x20
   00AF 20 03         [12]  304 	jr	NZ,00103$
                            305 ;smz80.h:731: NOP();    
   00B1 00            [ 4]  306 	NOP
   00B2 18 F7         [12]  307 	jr	00101$
   00B4                     308 00103$:
                            309 ;smz80.h:733: URTHR = c;
   00B4 21 02 00      [10]  310 	ld	hl, #2+0
   00B7 39            [11]  311 	add	hl, sp
   00B8 7E            [ 7]  312 	ld	a, (hl)
   00B9 D3 10         [11]  313 	out	(_URTHR),a
   00BB C9            [10]  314 	ret
   00BC                     315 _uart_write_end::
                            316 ;smz80.h:736: char uart_read(){
                            317 ;	---------------------------------
                            318 ; Function uart_read
                            319 ; ---------------------------------
   00BC                     320 _uart_read_start::
   00BC                     321 _uart_read:
                            322 ;smz80.h:739: while(!(URLSR & BV(UDR))) 
   00BC                     323 00101$:
   00BC DB 15         [11]  324 	in	a,(_URLSR)
   00BE 0F            [ 4]  325 	rrca
   00BF 38 03         [12]  326 	jr	C,00103$
                            327 ;smz80.h:740: NOP();
   00C1 00            [ 4]  328 	NOP
   00C2 18 F8         [12]  329 	jr	00101$
   00C4                     330 00103$:
                            331 ;smz80.h:742: return URRBR;
   00C4 DB 10         [11]  332 	in	a,(_URRBR)
   00C6 6F            [ 4]  333 	ld	l,a
   00C7 C9            [10]  334 	ret
   00C8                     335 _uart_read_end::
                            336 ;smz80.h:745: void uart_print(const char* str){
                            337 ;	---------------------------------
                            338 ; Function uart_print
                            339 ; ---------------------------------
   00C8                     340 _uart_print_start::
   00C8                     341 _uart_print:
                            342 ;smz80.h:748: while(*str)       
   00C8 C1            [10]  343 	pop	bc
   00C9 E1            [10]  344 	pop	hl
   00CA E5            [11]  345 	push	hl
   00CB C5            [11]  346 	push	bc
   00CC                     347 00101$:
   00CC 7E            [ 7]  348 	ld	a,(hl)
   00CD B7            [ 4]  349 	or	a, a
   00CE C8            [11]  350 	ret	Z
                            351 ;smz80.h:749: putchar(*str++); // envía el siguiente caracter. 
   00CF 23            [ 6]  352 	inc	hl
   00D0 E5            [11]  353 	push	hl
   00D1 F5            [11]  354 	push	af
   00D2 33            [ 6]  355 	inc	sp
   00D3 CDrFFr01      [17]  356 	call	_putchar
   00D6 33            [ 6]  357 	inc	sp
   00D7 E1            [10]  358 	pop	hl
   00D8 18 F2         [12]  359 	jr	00101$
   00DA C9            [10]  360 	ret
   00DB                     361 _uart_print_end::
                            362 ;smz80.h:752: int uart_read_line(char* str){
                            363 ;	---------------------------------
                            364 ; Function uart_read_line
                            365 ; ---------------------------------
   00DB                     366 _uart_read_line_start::
   00DB                     367 _uart_read_line:
   00DB DD E5         [15]  368 	push	ix
   00DD DD 21 00 00   [14]  369 	ld	ix,#0
   00E1 DD 39         [15]  370 	add	ix,sp
                            371 ;smz80.h:754: int n=0;
   00E3 01 00 00      [10]  372 	ld	bc,#0x0000
                            373 ;smz80.h:756: while(n<MAXLINE-1 && (c=getchar()) != '\n' && c !='\r'){
   00E6                     374 00111$:
   00E6 79            [ 4]  375 	ld	a,c
   00E7 D6 63         [ 7]  376 	sub	a, #0x63
   00E9 78            [ 4]  377 	ld	a,b
   00EA 17            [ 4]  378 	rla
   00EB 3F            [ 4]  379 	ccf
   00EC 1F            [ 4]  380 	rra
   00ED DE 80         [ 7]  381 	sbc	a, #0x80
   00EF 30 70         [12]  382 	jr	NC,00113$
   00F1 C5            [11]  383 	push	bc
   00F2 CDr1Cr02      [17]  384 	call	_getchar
   00F5 7D            [ 4]  385 	ld	a,l
   00F6 C1            [10]  386 	pop	bc
   00F7 57            [ 4]  387 	ld	d,a
   00F8 D6 0A         [ 7]  388 	sub	a, #0x0A
   00FA 28 65         [12]  389 	jr	Z,00113$
                            390 ;smz80.h:758: if(c == 0x7F || c==0x08){
   00FC 7A            [ 4]  391 	ld	a,d
   00FD FE 0D         [ 7]  392 	cp	a,#0x0D
   00FF 28 60         [12]  393 	jr	Z,00113$
   0101 FE 7F         [ 7]  394 	cp	a,#0x7F
   0103 28 04         [12]  395 	jr	Z,00105$
   0105 D6 08         [ 7]  396 	sub	a, #0x08
   0107 20 2D         [12]  397 	jr	NZ,00106$
   0109                     398 00105$:
                            399 ;smz80.h:760: if(n>0){
   0109 AF            [ 4]  400 	xor	a, a
   010A B9            [ 4]  401 	cp	a, c
   010B 98            [ 4]  402 	sbc	a, b
   010C E2r11r01      [10]  403 	jp	PO, 00149$
   010F EE 80         [ 7]  404 	xor	a, #0x80
   0111                     405 00149$:
   0111 F2rE6r00      [10]  406 	jp	P,00111$
                            407 ;smz80.h:761: str[--n]='\0';
   0114 0B            [ 6]  408 	dec	bc
   0115 DD 6E 04      [19]  409 	ld	l,4 (ix)
   0118 DD 66 05      [19]  410 	ld	h,5 (ix)
   011B 09            [11]  411 	add	hl,bc
   011C 36 00         [10]  412 	ld	(hl),#0x00
                            413 ;smz80.h:762: putchar(c);
   011E C5            [11]  414 	push	bc
   011F D5            [11]  415 	push	de
   0120 D5            [11]  416 	push	de
   0121 33            [ 6]  417 	inc	sp
   0122 CDrFFr01      [17]  418 	call	_putchar
   0125 33            [ 6]  419 	inc	sp
   0126 3E 20         [ 7]  420 	ld	a,#0x20
   0128 F5            [11]  421 	push	af
   0129 33            [ 6]  422 	inc	sp
   012A CDrFFr01      [17]  423 	call	_putchar
   012D 33            [ 6]  424 	inc	sp
   012E 33            [ 6]  425 	inc	sp
   012F CDrFFr01      [17]  426 	call	_putchar
   0132 33            [ 6]  427 	inc	sp
   0133 C1            [10]  428 	pop	bc
   0134 18 B0         [12]  429 	jr	00111$
   0136                     430 00106$:
                            431 ;smz80.h:768: if(isprint(c))
   0136 7A            [ 4]  432 	ld	a,d
   0137 6F            [ 4]  433 	ld	l,a
   0138 17            [ 4]  434 	rla
   0139 9F            [ 4]  435 	sbc	a, a
   013A 67            [ 4]  436 	ld	h,a
   013B C5            [11]  437 	push	bc
   013C D5            [11]  438 	push	de
   013D E5            [11]  439 	push	hl
   013E CDr00r00      [17]  440 	call	_isprint
   0141 F1            [10]  441 	pop	af
   0142 D1            [10]  442 	pop	de
   0143 C1            [10]  443 	pop	bc
   0144 7C            [ 4]  444 	ld	a,h
   0145 B5            [ 4]  445 	or	a,l
   0146 28 9E         [12]  446 	jr	Z,00111$
                            447 ;smz80.h:770: str[n++]=c;
   0148 61            [ 4]  448 	ld	h,c
   0149 58            [ 4]  449 	ld	e,b
   014A 03            [ 6]  450 	inc	bc
   014B DD 7E 04      [19]  451 	ld	a,4 (ix)
   014E 84            [ 4]  452 	add	a, h
   014F 6F            [ 4]  453 	ld	l,a
   0150 DD 7E 05      [19]  454 	ld	a,5 (ix)
   0153 8B            [ 4]  455 	adc	a, e
   0154 67            [ 4]  456 	ld	h,a
   0155 72            [ 7]  457 	ld	(hl),d
                            458 ;smz80.h:771: putchar(c);
   0156 C5            [11]  459 	push	bc
   0157 D5            [11]  460 	push	de
   0158 33            [ 6]  461 	inc	sp
   0159 CDrFFr01      [17]  462 	call	_putchar
   015C 33            [ 6]  463 	inc	sp
   015D C1            [10]  464 	pop	bc
   015E C3rE6r00      [10]  465 	jp	00111$
   0161                     466 00113$:
                            467 ;smz80.h:775: str[n]='\0';     
   0161 DD 6E 04      [19]  468 	ld	l,4 (ix)
   0164 DD 66 05      [19]  469 	ld	h,5 (ix)
   0167 09            [11]  470 	add	hl,bc
   0168 36 00         [10]  471 	ld	(hl),#0x00
                            472 ;smz80.h:776: putchar('\n');
   016A C5            [11]  473 	push	bc
   016B 3E 0A         [ 7]  474 	ld	a,#0x0A
   016D F5            [11]  475 	push	af
   016E 33            [ 6]  476 	inc	sp
   016F CDrFFr01      [17]  477 	call	_putchar
   0172 33            [ 6]  478 	inc	sp
                            479 ;smz80.h:777: return n;
   0173 E1            [10]  480 	pop	hl
   0174 DD E1         [14]  481 	pop	ix
   0176 C9            [10]  482 	ret
   0177                     483 _uart_read_line_end::
                            484 ;smz80.h:780: void uart_disable_interrupts(){
                            485 ;	---------------------------------
                            486 ; Function uart_disable_interrupts
                            487 ; ---------------------------------
   0177                     488 _uart_disable_interrupts_start::
   0177                     489 _uart_disable_interrupts:
                            490 ;smz80.h:782: URIER = 0;
   0177 3E 00         [ 7]  491 	ld	a,#0x00
   0179 D3 11         [11]  492 	out	(_URIER),a
   017B C9            [10]  493 	ret
   017C                     494 _uart_disable_interrupts_end::
                            495 ;smz80.h:785: void uart_enable_interrupts(uart_interrupt_t int_cfg){
                            496 ;	---------------------------------
                            497 ; Function uart_enable_interrupts
                            498 ; ---------------------------------
   017C                     499 _uart_enable_interrupts_start::
   017C                     500 _uart_enable_interrupts:
                            501 ;smz80.h:787: URIER = int_cfg;
   017C 21 02 00      [10]  502 	ld	hl, #2+0
   017F 39            [11]  503 	add	hl, sp
   0180 7E            [ 7]  504 	ld	a, (hl)
   0181 D3 11         [11]  505 	out	(_URIER),a
   0183 C9            [10]  506 	ret
   0184                     507 _uart_enable_interrupts_end::
                            508 ;smz80.h:792: void ppi_init(const ppi_cfg_t *ppi_config){
                            509 ;	---------------------------------
                            510 ; Function ppi_init
                            511 ; ---------------------------------
   0184                     512 _ppi_init_start::
   0184                     513 _ppi_init:
   0184 DD E5         [15]  514 	push	ix
   0186 DD 21 00 00   [14]  515 	ld	ix,#0
   018A DD 39         [15]  516 	add	ix,sp
                            517 ;smz80.h:794: PPI_CTRL = 0x80 | ppi_config->mode | (ppi_config->pcl_dir << PCPCL) | (ppi_config->pch_dir << PCPCH) | (ppi_config->pa_dir << PCPA) | (ppi_config->pb_dir << PCPB);
   018C DD 4E 04      [19]  518 	ld	c,4 (ix)
   018F DD 46 05      [19]  519 	ld	b,5 (ix)
   0192 0A            [ 7]  520 	ld	a,(bc)
   0193 CB FF         [ 8]  521 	set	7, a
   0195 5F            [ 4]  522 	ld	e,a
   0196 C5            [11]  523 	push	bc
   0197 FD E1         [14]  524 	pop	iy
   0199 FD 7E 03      [19]  525 	ld	a,3 (iy)
   019C B3            [ 4]  526 	or	a, e
   019D 5F            [ 4]  527 	ld	e,a
   019E C5            [11]  528 	push	bc
   019F FD E1         [14]  529 	pop	iy
   01A1 FD 7E 04      [19]  530 	ld	a,4 (iy)
   01A4 07            [ 4]  531 	rlca
   01A5 07            [ 4]  532 	rlca
   01A6 07            [ 4]  533 	rlca
   01A7 E6 F8         [ 7]  534 	and	a,#0xF8
   01A9 B3            [ 4]  535 	or	a, e
   01AA 5F            [ 4]  536 	ld	e,a
   01AB 69            [ 4]  537 	ld	l, c
   01AC 60            [ 4]  538 	ld	h, b
   01AD 23            [ 6]  539 	inc	hl
   01AE 7E            [ 7]  540 	ld	a,(hl)
   01AF 07            [ 4]  541 	rlca
   01B0 07            [ 4]  542 	rlca
   01B1 07            [ 4]  543 	rlca
   01B2 07            [ 4]  544 	rlca
   01B3 E6 F0         [ 7]  545 	and	a,#0xF0
   01B5 B3            [ 4]  546 	or	a, e
   01B6 57            [ 4]  547 	ld	d,a
   01B7 69            [ 4]  548 	ld	l, c
   01B8 60            [ 4]  549 	ld	h, b
   01B9 23            [ 6]  550 	inc	hl
   01BA 23            [ 6]  551 	inc	hl
   01BB 7E            [ 7]  552 	ld	a,(hl)
   01BC 87            [ 4]  553 	add	a, a
   01BD B2            [ 4]  554 	or	a, d
   01BE D3 43         [11]  555 	out	(_PPI_CTRL),a
   01C0 DD E1         [14]  556 	pop	ix
   01C2 C9            [10]  557 	ret
   01C3                     558 _ppi_init_end::
                            559 ;smz80.h:797: void ppi_set_portc_bit(const char bit){
                            560 ;	---------------------------------
                            561 ; Function ppi_set_portc_bit
                            562 ; ---------------------------------
   01C3                     563 _ppi_set_portc_bit_start::
   01C3                     564 _ppi_set_portc_bit:
                            565 ;smz80.h:799: PPI_CTRL = 1 | bit << 1;
   01C3 21 02 00      [10]  566 	ld	hl, #2+0
   01C6 39            [11]  567 	add	hl, sp
   01C7 7E            [ 7]  568 	ld	a, (hl)
   01C8 87            [ 4]  569 	add	a, a
   01C9 CB C7         [ 8]  570 	set	0, a
   01CB D3 43         [11]  571 	out	(_PPI_CTRL),a
   01CD C9            [10]  572 	ret
   01CE                     573 _ppi_set_portc_bit_end::
                            574 ;smz80.h:802: void ppi_clear_portc_bit(const char bit){
                            575 ;	---------------------------------
                            576 ; Function ppi_clear_portc_bit
                            577 ; ---------------------------------
   01CE                     578 _ppi_clear_portc_bit_start::
   01CE                     579 _ppi_clear_portc_bit:
                            580 ;smz80.h:804: PPI_CTRL = bit << 1;
   01CE 21 02 00      [10]  581 	ld	hl, #2+0
   01D1 39            [11]  582 	add	hl, sp
   01D2 7E            [ 7]  583 	ld	a, (hl)
   01D3 87            [ 4]  584 	add	a, a
   01D4 D3 43         [11]  585 	out	(_PPI_CTRL),a
   01D6 C9            [10]  586 	ret
   01D7                     587 _ppi_clear_portc_bit_end::
                            588 ;smz80.h:807: void delay_10us(){
                            589 ;	---------------------------------
                            590 ; Function delay_10us
                            591 ; ---------------------------------
   01D7                     592 _delay_10us_start::
   01D7                     593 _delay_10us:
                            594 ;smz80.h:817: __endasm;
   01D7 D9            [ 4]  595 	EXX
   01D8 08            [ 4]  596 	EX AF,AF'
   01D9 06 04         [ 7]  597 	LD B,#0x4
   01DB                     598 	    LOOP_10:
   01DB 10 FE         [13]  599 	DJNZ LOOP_10
   01DD 08            [ 4]  600 	EX AF,AF'
   01DE D9            [ 4]  601 	EXX
   01DF C9            [10]  602 	ret
   01E0                     603 _delay_10us_end::
                            604 ;smz80.h:821: void delay_100us(){
                            605 ;	---------------------------------
                            606 ; Function delay_100us
                            607 ; ---------------------------------
   01E0                     608 _delay_100us_start::
   01E0                     609 _delay_100us:
                            610 ;smz80.h:831: __endasm;
   01E0 D9            [ 4]  611 	EXX
   01E1 08            [ 4]  612 	EX AF,AF'
   01E2 06 3A         [ 7]  613 	LD B,#0x3A
   01E4                     614 	    LOOP_100:
   01E4 10 FE         [13]  615 	DJNZ LOOP_100
   01E6 08            [ 4]  616 	EX AF,AF'
   01E7 D9            [ 4]  617 	EXX
   01E8 C9            [10]  618 	ret
   01E9                     619 _delay_100us_end::
                            620 ;smz80.h:835: void delay_ms(int ms){
                            621 ;	---------------------------------
                            622 ; Function delay_ms
                            623 ; ---------------------------------
   01E9                     624 _delay_ms_start::
   01E9                     625 _delay_ms:
                            626 ;smz80.h:839: while(ms--)
   01E9 C1            [10]  627 	pop	bc
   01EA D1            [10]  628 	pop	de
   01EB D5            [11]  629 	push	de
   01EC C5            [11]  630 	push	bc
   01ED                     631 00102$:
   01ED 43            [ 4]  632 	ld	b,e
   01EE 4A            [ 4]  633 	ld	c,d
   01EF 1B            [ 6]  634 	dec	de
   01F0 79            [ 4]  635 	ld	a,c
   01F1 B0            [ 4]  636 	or	a,b
   01F2 C8            [11]  637 	ret	Z
                            638 ;smz80.h:840: for(i=0;i<0x10A;i++)
   01F3 01 0A 01      [10]  639 	ld	bc,#0x010A
   01F6                     640 00107$:
                            641 ;smz80.h:841: __asm__("nop");
   01F6 00            [ 4]  642 	nop
   01F7 0B            [ 6]  643 	dec	bc
                            644 ;smz80.h:840: for(i=0;i<0x10A;i++)
   01F8 78            [ 4]  645 	ld	a,b
   01F9 B1            [ 4]  646 	or	a,c
   01FA 20 FA         [12]  647 	jr	NZ,00107$
   01FC 18 EF         [12]  648 	jr	00102$
   01FE C9            [10]  649 	ret
   01FF                     650 _delay_ms_end::
                            651 ;smz80.h:848: void putchar(char c){
                            652 ;	---------------------------------
                            653 ; Function putchar
                            654 ; ---------------------------------
   01FF                     655 _putchar_start::
   01FF                     656 _putchar:
                            657 ;smz80.h:851: if(c=='\n')
   01FF 21 02 00      [10]  658 	ld	hl, #2+0
   0202 39            [11]  659 	add	hl, sp
   0203 7E            [ 7]  660 	ld	a, (hl)
   0204 D6 0A         [ 7]  661 	sub	a, #0x0A
   0206 20 08         [12]  662 	jr	NZ,00102$
                            663 ;smz80.h:852: uart_write('\r');
   0208 3E 0D         [ 7]  664 	ld	a,#0x0D
   020A F5            [11]  665 	push	af
   020B 33            [ 6]  666 	inc	sp
   020C CDrABr00      [17]  667 	call	_uart_write
   020F 33            [ 6]  668 	inc	sp
   0210                     669 00102$:
                            670 ;smz80.h:853: uart_write(c);
   0210 21 02 00      [10]  671 	ld	hl, #2+0
   0213 39            [11]  672 	add	hl, sp
   0214 7E            [ 7]  673 	ld	a, (hl)
   0215 F5            [11]  674 	push	af
   0216 33            [ 6]  675 	inc	sp
   0217 CDrABr00      [17]  676 	call	_uart_write
   021A 33            [ 6]  677 	inc	sp
   021B C9            [10]  678 	ret
   021C                     679 _putchar_end::
                            680 ;smz80.h:858: char getchar(){
                            681 ;	---------------------------------
                            682 ; Function getchar
                            683 ; ---------------------------------
   021C                     684 _getchar_start::
   021C                     685 _getchar:
                            686 ;smz80.h:861: return uart_read();
   021C C3rBCr00      [10]  687 	jp	_uart_read
   021F                     688 _getchar_end::
                            689 ;main.c:51: ISR_NMI()
                            690 ;	---------------------------------
                            691 ; Function isr_vector66
                            692 ; ---------------------------------
   021F                     693 _isr_vector66_start::
   021F                     694 _isr_vector66:
   021F F5            [11]  695 	push	af
   0220 C5            [11]  696 	push	bc
   0221 D5            [11]  697 	push	de
   0222 E5            [11]  698 	push	hl
   0223 FD E5         [15]  699 	push	iy
                            700 ;main.c:54: }
   0225 FD E1         [14]  701 	pop	iy
   0227 E1            [10]  702 	pop	hl
   0228 D1            [10]  703 	pop	de
   0229 C1            [10]  704 	pop	bc
   022A F1            [10]  705 	pop	af
   022B ED 45         [14]  706 	retn
   022D                     707 _isr_vector66_end::
   022D                     708 _PROGMEM:
   022D 00 00               709 	.dw #0x0000
   022F 01 00               710 	.dw #0x0001
   0231 FF 00               711 	.dw #0x00FF
   0233 32 00               712 	.dw #0x0032
   0235 01 00               713 	.dw #0x0001
   0237 00 01               714 	.dw #0x0100
   0239 02 00               715 	.dw #0x0002
   023B 00 07               716 	.dw #0x0700
   023D 03 00               717 	.dw #0x0003
   023F 30 10               718 	.dw #0x1030
   0241 04 00               719 	.dw #0x0004
   0243 00 00               720 	.dw #0x0000
   0245 08 00               721 	.dw #0x0008
   0247 02 02               722 	.dw #0x0202
   0249 09 00               723 	.dw #0x0009
   024B 00 00               724 	.dw #0x0000
   024D 0A 00               725 	.dw #0x000A
   024F 00 00               726 	.dw #0x0000
   0251 0C 00               727 	.dw #0x000C
   0253 00 00               728 	.dw #0x0000
   0255 0D 00               729 	.dw #0x000D
   0257 00 00               730 	.dw #0x0000
   0259 0F 00               731 	.dw #0x000F
   025B 00 00               732 	.dw #0x0000
   025D 10 00               733 	.dw #0x0010
   025F 00 00               734 	.dw #0x0000
   0261 11 00               735 	.dw #0x0011
   0263 07 00               736 	.dw #0x0007
   0265 12 00               737 	.dw #0x0012
   0267 00 00               738 	.dw #0x0000
   0269 13 00               739 	.dw #0x0013
   026B 00 00               740 	.dw #0x0000
   026D FF 00               741 	.dw #0x00FF
   026F C8 00               742 	.dw #0x00C8
   0271 10 00               743 	.dw #0x0010
   0273 90 16               744 	.dw #0x1690
   0275 11 00               745 	.dw #0x0011
   0277 27 02               746 	.dw #0x0227
   0279 FF 00               747 	.dw #0x00FF
   027B 32 00               748 	.dw #0x0032
   027D 12 00               749 	.dw #0x0012
   027F 1A 00               750 	.dw #0x001A
   0281 FF 00               751 	.dw #0x00FF
   0283 32 00               752 	.dw #0x0032
   0285 13 00               753 	.dw #0x0013
   0287 00 18               754 	.dw #0x1800
   0289 29 00               755 	.dw #0x0029
   028B 2A 00               756 	.dw #0x002A
   028D FF 00               757 	.dw #0x00FF
   028F 32 00               758 	.dw #0x0032
   0291 30 00               759 	.dw #0x0030
   0293 00 00               760 	.dw #0x0000
   0295 31 00               761 	.dw #0x0031
   0297 00 00               762 	.dw #0x0000
   0299 32 00               763 	.dw #0x0032
   029B 00 00               764 	.dw #0x0000
   029D 35 00               765 	.dw #0x0035
   029F 06 02               766 	.dw #0x0206
   02A1 36 00               767 	.dw #0x0036
   02A3 08 08               768 	.dw #0x0808
   02A5 37 00               769 	.dw #0x0037
   02A7 07 00               770 	.dw #0x0007
   02A9 38 00               771 	.dw #0x0038
   02AB 01 02               772 	.dw #0x0201
   02AD 39 00               773 	.dw #0x0039
   02AF 00 00               774 	.dw #0x0000
   02B1 3C 00               775 	.dw #0x003C
   02B3 00 00               776 	.dw #0x0000
   02B5 3D 00               777 	.dw #0x003D
   02B7 00 00               778 	.dw #0x0000
   02B9 20 00               779 	.dw #0x0020
   02BB 00 00               780 	.dw #0x0000
   02BD 21 00               781 	.dw #0x0021
   02BF 00 00               782 	.dw #0x0000
   02C1 50 00               783 	.dw #0x0050
   02C3 00 00               784 	.dw #0x0000
   02C5 51 00               785 	.dw #0x0051
   02C7 EF 00               786 	.dw #0x00EF
   02C9 52 00               787 	.dw #0x0052
   02CB 00 00               788 	.dw #0x0000
   02CD 53 00               789 	.dw #0x0053
   02CF 3F 01               790 	.dw #0x013F
   02D1 60 00               791 	.dw #0x0060
   02D3 00 A7               792 	.dw #0xA700
   02D5 61 00               793 	.dw #0x0061
   02D7 03 00               794 	.dw #0x0003
   02D9 6A 00               795 	.dw #0x006A
   02DB 00 00               796 	.dw #0x0000
   02DD 90 00               797 	.dw #0x0090
   02DF 10 00               798 	.dw #0x0010
   02E1 92 00               799 	.dw #0x0092
   02E3 00 00               800 	.dw #0x0000
   02E5 93 00               801 	.dw #0x0093
   02E7 03 00               802 	.dw #0x0003
   02E9 95 00               803 	.dw #0x0095
   02EB 00 11               804 	.dw #0x1100
   02ED 97 00               805 	.dw #0x0097
   02EF 00 00               806 	.dw #0x0000
   02F1 98 00               807 	.dw #0x0098
   02F3 00 00               808 	.dw #0x0000
   02F5 07 00               809 	.dw #0x0007
   02F7 33 01               810 	.dw #0x0133
                            811 ;main.c:56: ISR_INT_38()
                            812 ;	---------------------------------
                            813 ; Function isr_vector38
                            814 ; ---------------------------------
   02F9                     815 _isr_vector38_start::
   02F9                     816 _isr_vector38:
   02F9 F5            [11]  817 	push	af
   02FA C5            [11]  818 	push	bc
   02FB D5            [11]  819 	push	de
   02FC E5            [11]  820 	push	hl
   02FD FD E5         [15]  821 	push	iy
                            822 ;main.c:59: }
   02FF FD E1         [14]  823 	pop	iy
   0301 E1            [10]  824 	pop	hl
   0302 D1            [10]  825 	pop	de
   0303 C1            [10]  826 	pop	bc
   0304 F1            [10]  827 	pop	af
   0305 ED 4D         [14]  828 	reti
   0307                     829 _isr_vector38_end::
                            830 ;main.c:62: int main()
                            831 ;	---------------------------------
                            832 ; Function main
                            833 ; ---------------------------------
   0307                     834 _main_start::
   0307                     835 _main:
                            836 ;main.c:64: jug.x = 20;
   0307 21 14 00      [10]  837 	ld	hl,#0x0014
   030A 22rA3r0F      [16]  838 	ld	((_jug + 0x0002)), hl
                            839 ;main.c:65: jug.y = 300;
   030D 21 2C 01      [10]  840 	ld	hl,#0x012C
   0310 22rA5r0F      [16]  841 	ld	((_jug + 0x0004)), hl
                            842 ;main.c:66: system_init(); 
   0313 CDr28r03      [17]  843 	call	_system_init
                            844 ;main.c:67: PPI_PORTA = 0xff;
   0316 3E FF         [ 7]  845 	ld	a,#0xFF
   0318 D3 40         [11]  846 	out	(_PPI_PORTA),a
                            847 ;main.c:69: fillScreen(BLACK);
   031A 21 00 00      [10]  848 	ld	hl,#0x0000
   031D E5            [11]  849 	push	hl
   031E CDr04r06      [17]  850 	call	_fillScreen
   0321 F1            [10]  851 	pop	af
                            852 ;main.c:70: init_pantalla();
   0322 CDrFBr14      [17]  853 	call	_init_pantalla
                            854 ;main.c:73: while(TRUE)
   0325                     855 00102$:
                            856 ;main.c:75: SLEEP();
   0325 76            [ 4]  857 	HALT
   0326 18 FD         [12]  858 	jr	00102$
   0328                     859 _main_end::
                            860 ;main.c:79: void system_init()
                            861 ;	---------------------------------
                            862 ; Function system_init
                            863 ; ---------------------------------
   0328                     864 _system_init_start::
   0328                     865 _system_init:
                            866 ;main.c:81: PPI_CTRL = 0x89;
   0328 3E 89         [ 7]  867 	ld	a,#0x89
   032A D3 43         [11]  868 	out	(_PPI_CTRL),a
                            869 ;main.c:82: PPI_PORTA = 0xff;
   032C 3E FF         [ 7]  870 	ld	a,#0xFF
   032E D3 40         [11]  871 	out	(_PPI_PORTA),a
                            872 ;main.c:84: lcd_init();   
   0330 C3r33r03      [10]  873 	jp	_lcd_init
   0333                     874 _system_init_end::
                            875 ;main.c:87: void lcd_init()
                            876 ;	---------------------------------
                            877 ; Function lcd_init
                            878 ; ---------------------------------
   0333                     879 _lcd_init_start::
   0333                     880 _lcd_init:
   0333 DD E5         [15]  881 	push	ix
   0335 DD 21 00 00   [14]  882 	ld	ix,#0
   0339 DD 39         [15]  883 	add	ix,sp
   033B F5            [11]  884 	push	af
                            885 ;main.c:89: uint8_t i = 0;
   033C 0E 00         [ 7]  886 	ld	c,#0x00
                            887 ;main.c:92: CS_IDLE;
   033E DB 40         [11]  888 	in	a,(_PPI_PORTA)
   0340 CB DF         [ 8]  889 	set	3, a
   0342 D3 40         [11]  890 	out	(_PPI_PORTA),a
                            891 ;main.c:93: WR_IDLE;
   0344 DB 40         [11]  892 	in	a,(_PPI_PORTA)
   0346 CB CF         [ 8]  893 	set	1, a
   0348 D3 40         [11]  894 	out	(_PPI_PORTA),a
                            895 ;main.c:94: RD_IDLE;
   034A DB 40         [11]  896 	in	a,(_PPI_PORTA)
   034C CB C7         [ 8]  897 	set	0, a
   034E D3 40         [11]  898 	out	(_PPI_PORTA),a
                            899 ;main.c:95: CD_DATA;
   0350 DB 40         [11]  900 	in	a,(_PPI_PORTA)
   0352 CB D7         [ 8]  901 	set	2, a
   0354 D3 40         [11]  902 	out	(_PPI_PORTA),a
                            903 ;main.c:97: reset();
   0356 C5            [11]  904 	push	bc
   0357 CDrB0r05      [17]  905 	call	_reset
   035A C1            [10]  906 	pop	bc
                            907 ;main.c:99: CS_ACTIVE;
   035B DB 40         [11]  908 	in	a,(_PPI_PORTA)
   035D E6 F7         [ 7]  909 	and	a, #0xF7
   035F D3 40         [11]  910 	out	(_PPI_PORTA),a
                            911 ;main.c:100: while(i < sizeof(PROGMEM) / sizeof(uint16_t)) 
   0361                     912 00104$:
   0361 79            [ 4]  913 	ld	a,c
   0362 D6 66         [ 7]  914 	sub	a, #0x66
   0364 30 49         [12]  915 	jr	NC,00106$
                            916 ;main.c:102: a = PROGMEM[i++];
   0366 69            [ 4]  917 	ld	l,c
   0367 0C            [ 4]  918 	inc	c
   0368 26 00         [ 7]  919 	ld	h,#0x00
   036A 29            [11]  920 	add	hl, hl
   036B 11r2Dr02      [10]  921 	ld	de,#_PROGMEM
   036E 19            [11]  922 	add	hl,de
   036F 7E            [ 7]  923 	ld	a,(hl)
   0370 DD 77 FE      [19]  924 	ld	-2 (ix),a
   0373 23            [ 6]  925 	inc	hl
   0374 7E            [ 7]  926 	ld	a,(hl)
   0375 DD 77 FF      [19]  927 	ld	-1 (ix),a
                            928 ;main.c:103: d = PROGMEM[i++];
   0378 69            [ 4]  929 	ld	l,c
   0379 0C            [ 4]  930 	inc	c
   037A 26 00         [ 7]  931 	ld	h,#0x00
   037C 29            [11]  932 	add	hl, hl
   037D 11r2Dr02      [10]  933 	ld	de,#_PROGMEM
   0380 19            [11]  934 	add	hl,de
   0381 5E            [ 7]  935 	ld	e,(hl)
   0382 23            [ 6]  936 	inc	hl
   0383 56            [ 7]  937 	ld	d,(hl)
                            938 ;main.c:105: if(a == TFTLCD_DELAY)
   0384 DD 7E FE      [19]  939 	ld	a,-2 (ix)
   0387 3C            [ 4]  940 	inc	a
   0388 20 14         [12]  941 	jr	NZ,00102$
   038A DD 7E FF      [19]  942 	ld	a,-1 (ix)
   038D B7            [ 4]  943 	or	a, a
   038E 20 0E         [12]  944 	jr	NZ,00102$
                            945 ;main.c:107: delay_ms(d);
   0390 C5            [11]  946 	push	bc
   0391 D5            [11]  947 	push	de
   0392 D5            [11]  948 	push	de
   0393 CDrE9r01      [17]  949 	call	_delay_ms
   0396 F1            [10]  950 	pop	af
   0397 CDrE9r01      [17]  951 	call	_delay_ms
   039A F1            [10]  952 	pop	af
   039B C1            [10]  953 	pop	bc
   039C 18 C3         [12]  954 	jr	00104$
   039E                     955 00102$:
                            956 ;main.c:112: writeRegister16(a, d);
   039E C5            [11]  957 	push	bc
   039F D5            [11]  958 	push	de
   03A0 DD 6E FE      [19]  959 	ld	l,-2 (ix)
   03A3 DD 66 FF      [19]  960 	ld	h,-1 (ix)
   03A6 E5            [11]  961 	push	hl
   03A7 CDr00r05      [17]  962 	call	_writeRegister16
   03AA F1            [10]  963 	pop	af
   03AB F1            [10]  964 	pop	af
   03AC C1            [10]  965 	pop	bc
   03AD 18 B2         [12]  966 	jr	00104$
   03AF                     967 00106$:
                            968 ;main.c:115: CS_ACTIVE;
   03AF DB 40         [11]  969 	in	a,(_PPI_PORTA)
   03B1 E6 F7         [ 7]  970 	and	a, #0xF7
   03B3 D3 40         [11]  971 	out	(_PPI_PORTA),a
                            972 ;main.c:117: writeRegister16(0x0003, a);
   03B5 21 30 10      [10]  973 	ld	hl,#0x1030
   03B8 E5            [11]  974 	push	hl
   03B9 21 03 00      [10]  975 	ld	hl,#0x0003
   03BC E5            [11]  976 	push	hl
   03BD CDr00r05      [17]  977 	call	_writeRegister16
   03C0 F1            [10]  978 	pop	af
                            979 ;main.c:118: setAddrWindow(0, 0, TFTWIDTH-1, TFTHEIGHT-1);
   03C1 21 3F 01      [10]  980 	ld	hl, #0x013F
   03C4 E3            [19]  981 	ex	(sp),hl
   03C5 21 EF 00      [10]  982 	ld	hl,#0x00EF
   03C8 E5            [11]  983 	push	hl
   03C9 2E 00         [ 7]  984 	ld	l, #0x00
   03CB E5            [11]  985 	push	hl
   03CC 2E 00         [ 7]  986 	ld	l, #0x00
   03CE E5            [11]  987 	push	hl
   03CF CDr51r05      [17]  988 	call	_setAddrWindow
   03D2 21 08 00      [10]  989 	ld	hl,#8
   03D5 39            [11]  990 	add	hl,sp
   03D6 F9            [ 6]  991 	ld	sp,hl
   03D7 DD F9         [10]  992 	ld	sp, ix
   03D9 DD E1         [14]  993 	pop	ix
   03DB C9            [10]  994 	ret
   03DC                     995 _lcd_init_end::
                            996 ;main.c:122: void writeRegister24(uint8_t r, uint32_t d) 
                            997 ;	---------------------------------
                            998 ; Function writeRegister24
                            999 ; ---------------------------------
   03DC                    1000 _writeRegister24_start::
   03DC                    1001 _writeRegister24:
                           1002 ;main.c:124: CS_ACTIVE;
   03DC DB 40         [11] 1003 	in	a,(_PPI_PORTA)
   03DE E6 F7         [ 7] 1004 	and	a, #0xF7
   03E0 D3 40         [11] 1005 	out	(_PPI_PORTA),a
                           1006 ;main.c:125: CD_COMMAND;
   03E2 DB 40         [11] 1007 	in	a,(_PPI_PORTA)
   03E4 E6 FB         [ 7] 1008 	and	a, #0xFB
   03E6 D3 40         [11] 1009 	out	(_PPI_PORTA),a
                           1010 ;main.c:126: write8(r);
   03E8 21 02 00      [10] 1011 	ld	hl, #2+0
   03EB 39            [11] 1012 	add	hl, sp
   03EC 7E            [ 7] 1013 	ld	a, (hl)
   03ED F5            [11] 1014 	push	af
   03EE 33            [ 6] 1015 	inc	sp
   03EF CDr3Dr05      [17] 1016 	call	_write8
   03F2 33            [ 6] 1017 	inc	sp
                           1018 ;main.c:127: CD_DATA;
   03F3 DB 40         [11] 1019 	in	a,(_PPI_PORTA)
   03F5 CB D7         [ 8] 1020 	set	2, a
   03F7 D3 40         [11] 1021 	out	(_PPI_PORTA),a
                           1022 ;main.c:128: write8(d >> 16);
   03F9 F5            [11] 1023 	push	af
   03FA FD 21 05 00   [14] 1024 	ld	iy,#5
   03FE FD 39         [15] 1025 	add	iy,sp
   0400 FD 66 00      [19] 1026 	ld	h,0 (iy)
   0403 FD 6E 01      [19] 1027 	ld	l,1 (iy)
   0406 FD 56 02      [19] 1028 	ld	d,2 (iy)
   0409 FD 5E 03      [19] 1029 	ld	e,3 (iy)
   040C F1            [10] 1030 	pop	af
   040D 06 10         [ 7] 1031 	ld	b,#0x10
   040F                    1032 00103$:
   040F CB 3B         [ 8] 1033 	srl	e
   0411 CB 1A         [ 8] 1034 	rr	d
   0413 CB 1D         [ 8] 1035 	rr	l
   0415 CB 1C         [ 8] 1036 	rr	h
   0417 10 F6         [13] 1037 	djnz	00103$
   0419 E5            [11] 1038 	push	hl
   041A 33            [ 6] 1039 	inc	sp
   041B CDr3Dr05      [17] 1040 	call	_write8
   041E 33            [ 6] 1041 	inc	sp
                           1042 ;main.c:129: write8(d >> 8);
   041F F5            [11] 1043 	push	af
   0420 FD 21 05 00   [14] 1044 	ld	iy,#5
   0424 FD 39         [15] 1045 	add	iy,sp
   0426 FD 66 00      [19] 1046 	ld	h,0 (iy)
   0429 FD 6E 01      [19] 1047 	ld	l,1 (iy)
   042C FD 56 02      [19] 1048 	ld	d,2 (iy)
   042F FD 5E 03      [19] 1049 	ld	e,3 (iy)
   0432 F1            [10] 1050 	pop	af
   0433 06 08         [ 7] 1051 	ld	b,#0x08
   0435                    1052 00105$:
   0435 CB 3B         [ 8] 1053 	srl	e
   0437 CB 1A         [ 8] 1054 	rr	d
   0439 CB 1D         [ 8] 1055 	rr	l
   043B CB 1C         [ 8] 1056 	rr	h
   043D 10 F6         [13] 1057 	djnz	00105$
   043F E5            [11] 1058 	push	hl
   0440 33            [ 6] 1059 	inc	sp
   0441 CDr3Dr05      [17] 1060 	call	_write8
   0444 33            [ 6] 1061 	inc	sp
                           1062 ;main.c:130: write8(d);
   0445 FD 21 03 00   [14] 1063 	ld	iy,#3
   0449 FD 39         [15] 1064 	add	iy,sp
   044B FD 66 00      [19] 1065 	ld	h,0 (iy)
   044E E5            [11] 1066 	push	hl
   044F 33            [ 6] 1067 	inc	sp
   0450 CDr3Dr05      [17] 1068 	call	_write8
   0453 33            [ 6] 1069 	inc	sp
                           1070 ;main.c:131: CS_IDLE;
   0454 DB 40         [11] 1071 	in	a,(_PPI_PORTA)
   0456 CB DF         [ 8] 1072 	set	3, a
   0458 D3 40         [11] 1073 	out	(_PPI_PORTA),a
   045A C9            [10] 1074 	ret
   045B                    1075 _writeRegister24_end::
                           1076 ;main.c:135: void writeRegister32(uint8_t r, uint32_t d) 
                           1077 ;	---------------------------------
                           1078 ; Function writeRegister32
                           1079 ; ---------------------------------
   045B                    1080 _writeRegister32_start::
   045B                    1081 _writeRegister32:
                           1082 ;main.c:137: CS_ACTIVE;
   045B DB 40         [11] 1083 	in	a,(_PPI_PORTA)
   045D E6 F7         [ 7] 1084 	and	a, #0xF7
   045F D3 40         [11] 1085 	out	(_PPI_PORTA),a
                           1086 ;main.c:138: CD_COMMAND;
   0461 DB 40         [11] 1087 	in	a,(_PPI_PORTA)
   0463 E6 FB         [ 7] 1088 	and	a, #0xFB
   0465 D3 40         [11] 1089 	out	(_PPI_PORTA),a
                           1090 ;main.c:139: write8(r);
   0467 21 02 00      [10] 1091 	ld	hl, #2+0
   046A 39            [11] 1092 	add	hl, sp
   046B 7E            [ 7] 1093 	ld	a, (hl)
   046C F5            [11] 1094 	push	af
   046D 33            [ 6] 1095 	inc	sp
   046E CDr3Dr05      [17] 1096 	call	_write8
   0471 33            [ 6] 1097 	inc	sp
                           1098 ;main.c:140: CD_DATA;
   0472 DB 40         [11] 1099 	in	a,(_PPI_PORTA)
   0474 CB D7         [ 8] 1100 	set	2, a
   0476 D3 40         [11] 1101 	out	(_PPI_PORTA),a
                           1102 ;main.c:141: write8(d >> 24);
   0478 F5            [11] 1103 	push	af
   0479 FD 21 05 00   [14] 1104 	ld	iy,#5
   047D FD 39         [15] 1105 	add	iy,sp
   047F FD 66 00      [19] 1106 	ld	h,0 (iy)
   0482 FD 6E 01      [19] 1107 	ld	l,1 (iy)
   0485 FD 56 02      [19] 1108 	ld	d,2 (iy)
   0488 FD 5E 03      [19] 1109 	ld	e,3 (iy)
   048B F1            [10] 1110 	pop	af
   048C 06 18         [ 7] 1111 	ld	b,#0x18
   048E                    1112 00103$:
   048E CB 3B         [ 8] 1113 	srl	e
   0490 CB 1A         [ 8] 1114 	rr	d
   0492 CB 1D         [ 8] 1115 	rr	l
   0494 CB 1C         [ 8] 1116 	rr	h
   0496 10 F6         [13] 1117 	djnz	00103$
   0498 E5            [11] 1118 	push	hl
   0499 33            [ 6] 1119 	inc	sp
   049A CDr3Dr05      [17] 1120 	call	_write8
   049D 33            [ 6] 1121 	inc	sp
                           1122 ;main.c:142: write8(d >> 16);
   049E F5            [11] 1123 	push	af
   049F FD 21 05 00   [14] 1124 	ld	iy,#5
   04A3 FD 39         [15] 1125 	add	iy,sp
   04A5 FD 66 00      [19] 1126 	ld	h,0 (iy)
   04A8 FD 6E 01      [19] 1127 	ld	l,1 (iy)
   04AB FD 56 02      [19] 1128 	ld	d,2 (iy)
   04AE FD 5E 03      [19] 1129 	ld	e,3 (iy)
   04B1 F1            [10] 1130 	pop	af
   04B2 06 10         [ 7] 1131 	ld	b,#0x10
   04B4                    1132 00105$:
   04B4 CB 3B         [ 8] 1133 	srl	e
   04B6 CB 1A         [ 8] 1134 	rr	d
   04B8 CB 1D         [ 8] 1135 	rr	l
   04BA CB 1C         [ 8] 1136 	rr	h
   04BC 10 F6         [13] 1137 	djnz	00105$
   04BE E5            [11] 1138 	push	hl
   04BF 33            [ 6] 1139 	inc	sp
   04C0 CDr3Dr05      [17] 1140 	call	_write8
   04C3 33            [ 6] 1141 	inc	sp
                           1142 ;main.c:143: write8(d >> 8);
   04C4 F5            [11] 1143 	push	af
   04C5 FD 21 05 00   [14] 1144 	ld	iy,#5
   04C9 FD 39         [15] 1145 	add	iy,sp
   04CB FD 66 00      [19] 1146 	ld	h,0 (iy)
   04CE FD 6E 01      [19] 1147 	ld	l,1 (iy)
   04D1 FD 56 02      [19] 1148 	ld	d,2 (iy)
   04D4 FD 5E 03      [19] 1149 	ld	e,3 (iy)
   04D7 F1            [10] 1150 	pop	af
   04D8 06 08         [ 7] 1151 	ld	b,#0x08
   04DA                    1152 00107$:
   04DA CB 3B         [ 8] 1153 	srl	e
   04DC CB 1A         [ 8] 1154 	rr	d
   04DE CB 1D         [ 8] 1155 	rr	l
   04E0 CB 1C         [ 8] 1156 	rr	h
   04E2 10 F6         [13] 1157 	djnz	00107$
   04E4 E5            [11] 1158 	push	hl
   04E5 33            [ 6] 1159 	inc	sp
   04E6 CDr3Dr05      [17] 1160 	call	_write8
   04E9 33            [ 6] 1161 	inc	sp
                           1162 ;main.c:144: write8(d);
   04EA FD 21 03 00   [14] 1163 	ld	iy,#3
   04EE FD 39         [15] 1164 	add	iy,sp
   04F0 FD 66 00      [19] 1165 	ld	h,0 (iy)
   04F3 E5            [11] 1166 	push	hl
   04F4 33            [ 6] 1167 	inc	sp
   04F5 CDr3Dr05      [17] 1168 	call	_write8
   04F8 33            [ 6] 1169 	inc	sp
                           1170 ;main.c:145: CS_IDLE;
   04F9 DB 40         [11] 1171 	in	a,(_PPI_PORTA)
   04FB CB DF         [ 8] 1172 	set	3, a
   04FD D3 40         [11] 1173 	out	(_PPI_PORTA),a
   04FF C9            [10] 1174 	ret
   0500                    1175 _writeRegister32_end::
                           1176 ;main.c:149: void writeRegister16(uint16_t a, uint16_t d) 
                           1177 ;	---------------------------------
                           1178 ; Function writeRegister16
                           1179 ; ---------------------------------
   0500                    1180 _writeRegister16_start::
   0500                    1181 _writeRegister16:
                           1182 ;main.c:153: hi = (a) >> 8; 
   0500 FD 21 02 00   [14] 1183 	ld	iy,#2
   0504 FD 39         [15] 1184 	add	iy,sp
   0506 FD 56 01      [19] 1185 	ld	d,1 (iy)
                           1186 ;main.c:154: lo = (a); 
   0509 FD 46 00      [19] 1187 	ld	b,0 (iy)
                           1188 ;main.c:155: CD_COMMAND; 
   050C DB 40         [11] 1189 	in	a,(_PPI_PORTA)
   050E E6 FB         [ 7] 1190 	and	a, #0xFB
   0510 D3 40         [11] 1191 	out	(_PPI_PORTA),a
                           1192 ;main.c:156: write8(hi);
   0512 C5            [11] 1193 	push	bc
   0513 D5            [11] 1194 	push	de
   0514 33            [ 6] 1195 	inc	sp
   0515 CDr3Dr05      [17] 1196 	call	_write8
   0518 33            [ 6] 1197 	inc	sp
   0519 33            [ 6] 1198 	inc	sp
   051A CDr3Dr05      [17] 1199 	call	_write8
   051D 33            [ 6] 1200 	inc	sp
                           1201 ;main.c:158: hi = (d) >> 8; 
   051E FD 21 04 00   [14] 1202 	ld	iy,#4
   0522 FD 39         [15] 1203 	add	iy,sp
   0524 FD 56 01      [19] 1204 	ld	d,1 (iy)
                           1205 ;main.c:159: lo = (d); 
   0527 FD 46 00      [19] 1206 	ld	b,0 (iy)
                           1207 ;main.c:160: CD_DATA; 
   052A DB 40         [11] 1208 	in	a,(_PPI_PORTA)
   052C CB D7         [ 8] 1209 	set	2, a
   052E D3 40         [11] 1210 	out	(_PPI_PORTA),a
                           1211 ;main.c:161: write8(hi);
   0530 C5            [11] 1212 	push	bc
   0531 D5            [11] 1213 	push	de
   0532 33            [ 6] 1214 	inc	sp
   0533 CDr3Dr05      [17] 1215 	call	_write8
   0536 33            [ 6] 1216 	inc	sp
   0537 33            [ 6] 1217 	inc	sp
   0538 CDr3Dr05      [17] 1218 	call	_write8
   053B 33            [ 6] 1219 	inc	sp
   053C C9            [10] 1220 	ret
   053D                    1221 _writeRegister16_end::
                           1222 ;main.c:167: void write8(uint8_t d) 
                           1223 ;	---------------------------------
                           1224 ; Function write8
                           1225 ; ---------------------------------
   053D                    1226 _write8_start::
   053D                    1227 _write8:
                           1228 ;main.c:169: PPI_PORTB = d;
   053D 21 02 00      [10] 1229 	ld	hl, #2+0
   0540 39            [11] 1230 	add	hl, sp
   0541 7E            [ 7] 1231 	ld	a, (hl)
   0542 D3 41         [11] 1232 	out	(_PPI_PORTB),a
                           1233 ;main.c:170: WR_STROBE; 
   0544 DB 40         [11] 1234 	in	a,(_PPI_PORTA)
   0546 E6 FD         [ 7] 1235 	and	a, #0xFD
   0548 D3 40         [11] 1236 	out	(_PPI_PORTA),a
   054A DB 40         [11] 1237 	in	a,(_PPI_PORTA)
   054C CB CF         [ 8] 1238 	set	1, a
   054E D3 40         [11] 1239 	out	(_PPI_PORTA),a
   0550 C9            [10] 1240 	ret
   0551                    1241 _write8_end::
                           1242 ;main.c:173: void setAddrWindow(int x1, int y1, int x2, int y2) 
                           1243 ;	---------------------------------
                           1244 ; Function setAddrWindow
                           1245 ; ---------------------------------
   0551                    1246 _setAddrWindow_start::
   0551                    1247 _setAddrWindow:
                           1248 ;main.c:176: CS_ACTIVE;
   0551 DB 40         [11] 1249 	in	a,(_PPI_PORTA)
   0553 E6 F7         [ 7] 1250 	and	a, #0xF7
   0555 D3 40         [11] 1251 	out	(_PPI_PORTA),a
                           1252 ;main.c:177: x  = x1;
   0557 C1            [10] 1253 	pop	bc
   0558 D1            [10] 1254 	pop	de
   0559 D5            [11] 1255 	push	de
   055A C5            [11] 1256 	push	bc
                           1257 ;main.c:178: y  = y1;
   055B 21 04 00      [10] 1258 	ld	hl, #4
   055E 39            [11] 1259 	add	hl, sp
                           1260 ;main.c:180: writeRegister16(0x0050, x1); 
   055F 4E            [ 7] 1261 	ld	c, (hl)
   0560 23            [ 6] 1262 	inc	hl
   0561 46            [ 7] 1263 	ld	b, (hl)
   0562 C5            [11] 1264 	push	bc
   0563 D5            [11] 1265 	push	de
   0564 D5            [11] 1266 	push	de
   0565 01 50 00      [10] 1267 	ld	bc,#0x0050
   0568 C5            [11] 1268 	push	bc
   0569 CDr00r05      [17] 1269 	call	_writeRegister16
   056C F1            [10] 1270 	pop	af
   056D F1            [10] 1271 	pop	af
   056E 21 0A 00      [10] 1272 	ld	hl, #10
   0571 39            [11] 1273 	add	hl, sp
   0572 4E            [ 7] 1274 	ld	c, (hl)
   0573 23            [ 6] 1275 	inc	hl
   0574 46            [ 7] 1276 	ld	b, (hl)
   0575 C5            [11] 1277 	push	bc
   0576 01 51 00      [10] 1278 	ld	bc,#0x0051
   0579 C5            [11] 1279 	push	bc
   057A CDr00r05      [17] 1280 	call	_writeRegister16
   057D F1            [10] 1281 	pop	af
   057E F1            [10] 1282 	pop	af
   057F D1            [10] 1283 	pop	de
   0580 E1            [10] 1284 	pop	hl
                           1285 ;main.c:182: writeRegister16(0x0052, y1);
   0581 E5            [11] 1286 	push	hl
   0582 D5            [11] 1287 	push	de
   0583 E5            [11] 1288 	push	hl
   0584 01 52 00      [10] 1289 	ld	bc,#0x0052
   0587 C5            [11] 1290 	push	bc
   0588 CDr00r05      [17] 1291 	call	_writeRegister16
   058B F1            [10] 1292 	pop	af
   058C F1            [10] 1293 	pop	af
   058D 21 0C 00      [10] 1294 	ld	hl, #12
   0590 39            [11] 1295 	add	hl, sp
   0591 4E            [ 7] 1296 	ld	c, (hl)
   0592 23            [ 6] 1297 	inc	hl
   0593 46            [ 7] 1298 	ld	b, (hl)
   0594 C5            [11] 1299 	push	bc
   0595 01 53 00      [10] 1300 	ld	bc,#0x0053
   0598 C5            [11] 1301 	push	bc
   0599 CDr00r05      [17] 1302 	call	_writeRegister16
   059C F1            [10] 1303 	pop	af
   059D F1            [10] 1304 	pop	af
   059E 01 20 00      [10] 1305 	ld	bc,#0x0020
   05A1 C5            [11] 1306 	push	bc
   05A2 CDr00r05      [17] 1307 	call	_writeRegister16
   05A5 F1            [10] 1308 	pop	af
   05A6 21 21 00      [10] 1309 	ld	hl, #0x0021
   05A9 E3            [19] 1310 	ex	(sp),hl
   05AA CDr00r05      [17] 1311 	call	_writeRegister16
   05AD F1            [10] 1312 	pop	af
   05AE F1            [10] 1313 	pop	af
   05AF C9            [10] 1314 	ret
   05B0                    1315 _setAddrWindow_end::
                           1316 ;main.c:188: void reset() 
                           1317 ;	---------------------------------
                           1318 ; Function reset
                           1319 ; ---------------------------------
   05B0                    1320 _reset_start::
   05B0                    1321 _reset:
                           1322 ;main.c:192: CS_IDLE;
   05B0 DB 40         [11] 1323 	in	a,(_PPI_PORTA)
   05B2 CB DF         [ 8] 1324 	set	3, a
   05B4 D3 40         [11] 1325 	out	(_PPI_PORTA),a
                           1326 ;main.c:193: WR_IDLE;
   05B6 DB 40         [11] 1327 	in	a,(_PPI_PORTA)
   05B8 CB CF         [ 8] 1328 	set	1, a
   05BA D3 40         [11] 1329 	out	(_PPI_PORTA),a
                           1330 ;main.c:194: RD_IDLE;
   05BC DB 40         [11] 1331 	in	a,(_PPI_PORTA)
   05BE CB C7         [ 8] 1332 	set	0, a
   05C0 D3 40         [11] 1333 	out	(_PPI_PORTA),a
                           1334 ;main.c:196: RESET_LOW;
   05C2 DB 40         [11] 1335 	in	a,(_PPI_PORTA)
   05C4 E6 EF         [ 7] 1336 	and	a, #0xEF
   05C6 D3 40         [11] 1337 	out	(_PPI_PORTA),a
                           1338 ;main.c:197: RESET_HIGH;
   05C8 DB 40         [11] 1339 	in	a,(_PPI_PORTA)
   05CA CB E7         [ 8] 1340 	set	4, a
   05CC D3 40         [11] 1341 	out	(_PPI_PORTA),a
                           1342 ;main.c:199: CS_ACTIVE;
   05CE DB 40         [11] 1343 	in	a,(_PPI_PORTA)
   05D0 E6 F7         [ 7] 1344 	and	a, #0xF7
   05D2 D3 40         [11] 1345 	out	(_PPI_PORTA),a
                           1346 ;main.c:200: CD_COMMAND;
   05D4 DB 40         [11] 1347 	in	a,(_PPI_PORTA)
   05D6 E6 FB         [ 7] 1348 	and	a, #0xFB
   05D8 D3 40         [11] 1349 	out	(_PPI_PORTA),a
                           1350 ;main.c:201: write8(0x00);
   05DA AF            [ 4] 1351 	xor	a, a
   05DB F5            [11] 1352 	push	af
   05DC 33            [ 6] 1353 	inc	sp
   05DD CDr3Dr05      [17] 1354 	call	_write8
   05E0 33            [ 6] 1355 	inc	sp
                           1356 ;main.c:203: for(i=0; i<3; i++)
   05E1 16 00         [ 7] 1357 	ld	d,#0x00
   05E3                    1358 00102$:
                           1359 ;main.c:205: WR_STROBE;
   05E3 DB 40         [11] 1360 	in	a,(_PPI_PORTA)
   05E5 E6 FD         [ 7] 1361 	and	a, #0xFD
   05E7 D3 40         [11] 1362 	out	(_PPI_PORTA),a
   05E9 DB 40         [11] 1363 	in	a,(_PPI_PORTA)
   05EB CB CF         [ 8] 1364 	set	1, a
   05ED D3 40         [11] 1365 	out	(_PPI_PORTA),a
                           1366 ;main.c:203: for(i=0; i<3; i++)
   05EF 14            [ 4] 1367 	inc	d
   05F0 7A            [ 4] 1368 	ld	a,d
   05F1 D6 03         [ 7] 1369 	sub	a, #0x03
   05F3 38 EE         [12] 1370 	jr	C,00102$
                           1371 ;main.c:207: CS_IDLE;
   05F5 DB 40         [11] 1372 	in	a,(_PPI_PORTA)
   05F7 CB DF         [ 8] 1373 	set	3, a
   05F9 D3 40         [11] 1374 	out	(_PPI_PORTA),a
                           1375 ;main.c:209: delay_ms(500);
   05FB 21 F4 01      [10] 1376 	ld	hl,#0x01F4
   05FE E5            [11] 1377 	push	hl
   05FF CDrE9r01      [17] 1378 	call	_delay_ms
   0602 F1            [10] 1379 	pop	af
   0603 C9            [10] 1380 	ret
   0604                    1381 _reset_end::
                           1382 ;main.c:212: void fillScreen(uint16_t color) {
                           1383 ;	---------------------------------
                           1384 ; Function fillScreen
                           1385 ; ---------------------------------
   0604                    1386 _fillScreen_start::
   0604                    1387 _fillScreen:
                           1388 ;main.c:219: CS_ACTIVE;
   0604 DB 40         [11] 1389 	in	a,(_PPI_PORTA)
   0606 E6 F7         [ 7] 1390 	and	a, #0xF7
   0608 D3 40         [11] 1391 	out	(_PPI_PORTA),a
                           1392 ;main.c:220: writeRegister16(0x0020, x);
   060A 21 00 00      [10] 1393 	ld	hl,#0x0000
   060D E5            [11] 1394 	push	hl
   060E 2E 20         [ 7] 1395 	ld	l, #0x20
   0610 E5            [11] 1396 	push	hl
   0611 CDr00r05      [17] 1397 	call	_writeRegister16
   0614 F1            [10] 1398 	pop	af
   0615 F1            [10] 1399 	pop	af
                           1400 ;main.c:221: writeRegister16(0x0021, y);
   0616 21 00 00      [10] 1401 	ld	hl,#0x0000
   0619 E5            [11] 1402 	push	hl
   061A 2E 21         [ 7] 1403 	ld	l, #0x21
   061C E5            [11] 1404 	push	hl
   061D CDr00r05      [17] 1405 	call	_writeRegister16
   0620 F1            [10] 1406 	pop	af
                           1407 ;main.c:223: flood(color, (long)TFTWIDTH * (long)TFTHEIGHT);
   0621 21 01 00      [10] 1408 	ld	hl, #0x0001
   0624 E3            [19] 1409 	ex	(sp),hl
   0625 21 00 2C      [10] 1410 	ld	hl,#0x2C00
   0628 E5            [11] 1411 	push	hl
   0629 21 06 00      [10] 1412 	ld	hl, #6
   062C 39            [11] 1413 	add	hl, sp
   062D 4E            [ 7] 1414 	ld	c, (hl)
   062E 23            [ 6] 1415 	inc	hl
   062F 46            [ 7] 1416 	ld	b, (hl)
   0630 C5            [11] 1417 	push	bc
   0631 CDr3Ar06      [17] 1418 	call	_flood
   0634 21 06 00      [10] 1419 	ld	hl,#6
   0637 39            [11] 1420 	add	hl,sp
   0638 F9            [ 6] 1421 	ld	sp,hl
   0639 C9            [10] 1422 	ret
   063A                    1423 _fillScreen_end::
                           1424 ;main.c:227: void flood(uint16_t color, uint32_t len) 
                           1425 ;	---------------------------------
                           1426 ; Function flood
                           1427 ; ---------------------------------
   063A                    1428 _flood_start::
   063A                    1429 _flood:
   063A DD E5         [15] 1430 	push	ix
   063C DD 21 00 00   [14] 1431 	ld	ix,#0
   0640 DD 39         [15] 1432 	add	ix,sp
   0642 21 F9 FF      [10] 1433 	ld	hl,#-7
   0645 39            [11] 1434 	add	hl,sp
   0646 F9            [ 6] 1435 	ld	sp,hl
                           1436 ;main.c:231: hi= color >> 8;
   0647 DD 4E 05      [19] 1437 	ld	c,5 (ix)
                           1438 ;main.c:232: lo=color;         
   064A DD 7E 04      [19] 1439 	ld	a,4 (ix)
   064D DD 77 F9      [19] 1440 	ld	-7 (ix),a
                           1441 ;main.c:234: CS_ACTIVE;
   0650 DB 40         [11] 1442 	in	a,(_PPI_PORTA)
   0652 E6 F7         [ 7] 1443 	and	a, #0xF7
   0654 D3 40         [11] 1444 	out	(_PPI_PORTA),a
                           1445 ;main.c:235: CD_COMMAND;
   0656 DB 40         [11] 1446 	in	a,(_PPI_PORTA)
   0658 E6 FB         [ 7] 1447 	and	a, #0xFB
   065A D3 40         [11] 1448 	out	(_PPI_PORTA),a
                           1449 ;main.c:237: write8(0x00);
   065C C5            [11] 1450 	push	bc
   065D AF            [ 4] 1451 	xor	a, a
   065E F5            [11] 1452 	push	af
   065F 33            [ 6] 1453 	inc	sp
   0660 CDr3Dr05      [17] 1454 	call	_write8
   0663 33            [ 6] 1455 	inc	sp
   0664 3E 22         [ 7] 1456 	ld	a,#0x22
   0666 F5            [11] 1457 	push	af
   0667 33            [ 6] 1458 	inc	sp
   0668 CDr3Dr05      [17] 1459 	call	_write8
   066B 33            [ 6] 1460 	inc	sp
   066C C1            [10] 1461 	pop	bc
                           1462 ;main.c:240: CD_DATA;
   066D DB 40         [11] 1463 	in	a,(_PPI_PORTA)
   066F CB D7         [ 8] 1464 	set	2, a
   0671 D3 40         [11] 1465 	out	(_PPI_PORTA),a
                           1466 ;main.c:241: write8(hi);
   0673 C5            [11] 1467 	push	bc
   0674 79            [ 4] 1468 	ld	a,c
   0675 F5            [11] 1469 	push	af
   0676 33            [ 6] 1470 	inc	sp
   0677 CDr3Dr05      [17] 1471 	call	_write8
   067A 33            [ 6] 1472 	inc	sp
   067B DD 7E F9      [19] 1473 	ld	a,-7 (ix)
   067E F5            [11] 1474 	push	af
   067F 33            [ 6] 1475 	inc	sp
   0680 CDr3Dr05      [17] 1476 	call	_write8
   0683 33            [ 6] 1477 	inc	sp
   0684 C1            [10] 1478 	pop	bc
                           1479 ;main.c:243: len--;
   0685 DD 7E 06      [19] 1480 	ld	a,6 (ix)
   0688 C6 FF         [ 7] 1481 	add	a,#0xFF
   068A DD 77 06      [19] 1482 	ld	6 (ix),a
   068D DD 7E 07      [19] 1483 	ld	a,7 (ix)
   0690 CE FF         [ 7] 1484 	adc	a,#0xFF
   0692 DD 77 07      [19] 1485 	ld	7 (ix),a
   0695 DD 7E 08      [19] 1486 	ld	a,8 (ix)
   0698 CE FF         [ 7] 1487 	adc	a,#0xFF
   069A DD 77 08      [19] 1488 	ld	8 (ix),a
   069D DD 7E 09      [19] 1489 	ld	a,9 (ix)
   06A0 CE FF         [ 7] 1490 	adc	a,#0xFF
   06A2 DD 77 09      [19] 1491 	ld	9 (ix),a
                           1492 ;main.c:245: blocks = (uint16_t)(len / 64);
   06A5 F5            [11] 1493 	push	af
   06A6 DD 5E 06      [19] 1494 	ld	e,6 (ix)
   06A9 DD 56 07      [19] 1495 	ld	d,7 (ix)
   06AC DD 66 08      [19] 1496 	ld	h,8 (ix)
   06AF DD 6E 09      [19] 1497 	ld	l,9 (ix)
   06B2 F1            [10] 1498 	pop	af
   06B3 06 06         [ 7] 1499 	ld	b,#0x06
   06B5                    1500 00183$:
   06B5 CB 3D         [ 8] 1501 	srl	l
   06B7 CB 1C         [ 8] 1502 	rr	h
   06B9 CB 1A         [ 8] 1503 	rr	d
   06BB CB 1B         [ 8] 1504 	rr	e
   06BD 10 F6         [13] 1505 	djnz	00183$
                           1506 ;main.c:257: for(i = (uint8_t)len & 63; i--; ) 
   06BF DD 7E 06      [19] 1507 	ld	a,6 (ix)
   06C2 E6 3F         [ 7] 1508 	and	a, #0x3F
   06C4 DD 77 FF      [19] 1509 	ld	-1 (ix),a
                           1510 ;main.c:246: if(hi == lo) 
   06C7 DD 7E F9      [19] 1511 	ld	a,-7 (ix)
   06CA 91            [ 4] 1512 	sub	a, c
   06CB C2r64r07      [10] 1513 	jp	NZ,00135$
                           1514 ;main.c:248: while(blocks--) 
   06CE 4B            [ 4] 1515 	ld	c, e
   06CF 42            [ 4] 1516 	ld	b, d
   06D0                    1517 00104$:
   06D0 61            [ 4] 1518 	ld	h,c
   06D1 68            [ 4] 1519 	ld	l,b
   06D2 0B            [ 6] 1520 	dec	bc
   06D3 7D            [ 4] 1521 	ld	a,l
   06D4 B4            [ 4] 1522 	or	a,h
   06D5 28 69         [12] 1523 	jr	Z,00106$
                           1524 ;main.c:251: do 
   06D7 16 10         [ 7] 1525 	ld	d,#0x10
   06D9                    1526 00101$:
                           1527 ;main.c:253: WR_STROBE; WR_STROBE; WR_STROBE; WR_STROBE;
   06D9 DB 40         [11] 1528 	in	a,(_PPI_PORTA)
   06DB E6 FD         [ 7] 1529 	and	a, #0xFD
   06DD D3 40         [11] 1530 	out	(_PPI_PORTA),a
   06DF DB 40         [11] 1531 	in	a,(_PPI_PORTA)
   06E1 CB CF         [ 8] 1532 	set	1, a
   06E3 D3 40         [11] 1533 	out	(_PPI_PORTA),a
   06E5 DB 40         [11] 1534 	in	a,(_PPI_PORTA)
   06E7 E6 FD         [ 7] 1535 	and	a, #0xFD
   06E9 D3 40         [11] 1536 	out	(_PPI_PORTA),a
   06EB DB 40         [11] 1537 	in	a,(_PPI_PORTA)
   06ED CB CF         [ 8] 1538 	set	1, a
   06EF D3 40         [11] 1539 	out	(_PPI_PORTA),a
   06F1 DB 40         [11] 1540 	in	a,(_PPI_PORTA)
   06F3 E6 FD         [ 7] 1541 	and	a, #0xFD
   06F5 D3 40         [11] 1542 	out	(_PPI_PORTA),a
   06F7 DB 40         [11] 1543 	in	a,(_PPI_PORTA)
   06F9 CB CF         [ 8] 1544 	set	1, a
   06FB D3 40         [11] 1545 	out	(_PPI_PORTA),a
   06FD DB 40         [11] 1546 	in	a,(_PPI_PORTA)
   06FF E6 FD         [ 7] 1547 	and	a, #0xFD
   0701 D3 40         [11] 1548 	out	(_PPI_PORTA),a
   0703 DB 40         [11] 1549 	in	a,(_PPI_PORTA)
   0705 CB CF         [ 8] 1550 	set	1, a
   0707 D3 40         [11] 1551 	out	(_PPI_PORTA),a
                           1552 ;main.c:254: WR_STROBE; WR_STROBE; WR_STROBE; WR_STROBE; 
   0709 DB 40         [11] 1553 	in	a,(_PPI_PORTA)
   070B E6 FD         [ 7] 1554 	and	a, #0xFD
   070D D3 40         [11] 1555 	out	(_PPI_PORTA),a
   070F DB 40         [11] 1556 	in	a,(_PPI_PORTA)
   0711 CB CF         [ 8] 1557 	set	1, a
   0713 D3 40         [11] 1558 	out	(_PPI_PORTA),a
   0715 DB 40         [11] 1559 	in	a,(_PPI_PORTA)
   0717 E6 FD         [ 7] 1560 	and	a, #0xFD
   0719 D3 40         [11] 1561 	out	(_PPI_PORTA),a
   071B DB 40         [11] 1562 	in	a,(_PPI_PORTA)
   071D CB CF         [ 8] 1563 	set	1, a
   071F D3 40         [11] 1564 	out	(_PPI_PORTA),a
   0721 DB 40         [11] 1565 	in	a,(_PPI_PORTA)
   0723 E6 FD         [ 7] 1566 	and	a, #0xFD
   0725 D3 40         [11] 1567 	out	(_PPI_PORTA),a
   0727 DB 40         [11] 1568 	in	a,(_PPI_PORTA)
   0729 CB CF         [ 8] 1569 	set	1, a
   072B D3 40         [11] 1570 	out	(_PPI_PORTA),a
   072D DB 40         [11] 1571 	in	a,(_PPI_PORTA)
   072F E6 FD         [ 7] 1572 	and	a, #0xFD
   0731 D3 40         [11] 1573 	out	(_PPI_PORTA),a
   0733 DB 40         [11] 1574 	in	a,(_PPI_PORTA)
   0735 CB CF         [ 8] 1575 	set	1, a
   0737 D3 40         [11] 1576 	out	(_PPI_PORTA),a
                           1577 ;main.c:255: }while(--i);
   0739 15            [ 4] 1578 	dec	d
   073A 7A            [ 4] 1579 	ld	a,d
   073B B7            [ 4] 1580 	or	a, a
   073C 20 9B         [12] 1581 	jr	NZ,00101$
   073E 18 90         [12] 1582 	jr	00104$
   0740                    1583 00106$:
                           1584 ;main.c:257: for(i = (uint8_t)len & 63; i--; ) 
   0740 DD 56 FF      [19] 1585 	ld	d,-1 (ix)
   0743                    1586 00119$:
   0743 62            [ 4] 1587 	ld	h,d
   0744 15            [ 4] 1588 	dec	d
   0745 7C            [ 4] 1589 	ld	a,h
   0746 B7            [ 4] 1590 	or	a, a
   0747 CAr06r08      [10] 1591 	jp	Z,00117$
                           1592 ;main.c:259: WR_STROBE;
   074A DB 40         [11] 1593 	in	a,(_PPI_PORTA)
   074C E6 FD         [ 7] 1594 	and	a, #0xFD
   074E D3 40         [11] 1595 	out	(_PPI_PORTA),a
   0750 DB 40         [11] 1596 	in	a,(_PPI_PORTA)
   0752 CB CF         [ 8] 1597 	set	1, a
   0754 D3 40         [11] 1598 	out	(_PPI_PORTA),a
                           1599 ;main.c:260: WR_STROBE;
   0756 DB 40         [11] 1600 	in	a,(_PPI_PORTA)
   0758 E6 FD         [ 7] 1601 	and	a, #0xFD
   075A D3 40         [11] 1602 	out	(_PPI_PORTA),a
   075C DB 40         [11] 1603 	in	a,(_PPI_PORTA)
   075E CB CF         [ 8] 1604 	set	1, a
   0760 D3 40         [11] 1605 	out	(_PPI_PORTA),a
   0762 18 DF         [12] 1606 	jr	00119$
                           1607 ;main.c:265: while(blocks--) 
   0764                    1608 00135$:
   0764 DD 73 FD      [19] 1609 	ld	-3 (ix),e
   0767 DD 72 FE      [19] 1610 	ld	-2 (ix),d
   076A                    1611 00111$:
   076A DD 7E FD      [19] 1612 	ld	a,-3 (ix)
   076D DD 77 FB      [19] 1613 	ld	-5 (ix),a
   0770 DD 7E FE      [19] 1614 	ld	a,-2 (ix)
   0773 DD 77 FC      [19] 1615 	ld	-4 (ix),a
   0776 DD 6E FD      [19] 1616 	ld	l,-3 (ix)
   0779 DD 66 FE      [19] 1617 	ld	h,-2 (ix)
   077C 2B            [ 6] 1618 	dec	hl
   077D DD 75 FD      [19] 1619 	ld	-3 (ix),l
   0780 DD 74 FE      [19] 1620 	ld	-2 (ix),h
   0783 DD 7E FC      [19] 1621 	ld	a,-4 (ix)
   0786 DD B6 FB      [19] 1622 	or	a,-5 (ix)
   0789 28 57         [12] 1623 	jr	Z,00113$
                           1624 ;main.c:268: do 
   078B DD 36 FA 10   [19] 1625 	ld	-6 (ix),#0x10
   078F                    1626 00108$:
                           1627 ;main.c:270: write8(hi); write8(lo); write8(hi); write8(lo);
   078F C5            [11] 1628 	push	bc
   0790 79            [ 4] 1629 	ld	a,c
   0791 F5            [11] 1630 	push	af
   0792 33            [ 6] 1631 	inc	sp
   0793 CDr3Dr05      [17] 1632 	call	_write8
   0796 33            [ 6] 1633 	inc	sp
   0797 DD 7E F9      [19] 1634 	ld	a,-7 (ix)
   079A F5            [11] 1635 	push	af
   079B 33            [ 6] 1636 	inc	sp
   079C CDr3Dr05      [17] 1637 	call	_write8
   079F 33            [ 6] 1638 	inc	sp
   07A0 C1            [10] 1639 	pop	bc
   07A1 C5            [11] 1640 	push	bc
   07A2 79            [ 4] 1641 	ld	a,c
   07A3 F5            [11] 1642 	push	af
   07A4 33            [ 6] 1643 	inc	sp
   07A5 CDr3Dr05      [17] 1644 	call	_write8
   07A8 33            [ 6] 1645 	inc	sp
   07A9 DD 7E F9      [19] 1646 	ld	a,-7 (ix)
   07AC F5            [11] 1647 	push	af
   07AD 33            [ 6] 1648 	inc	sp
   07AE CDr3Dr05      [17] 1649 	call	_write8
   07B1 33            [ 6] 1650 	inc	sp
   07B2 C1            [10] 1651 	pop	bc
                           1652 ;main.c:271: write8(hi); write8(lo); write8(hi); write8(lo);
   07B3 C5            [11] 1653 	push	bc
   07B4 79            [ 4] 1654 	ld	a,c
   07B5 F5            [11] 1655 	push	af
   07B6 33            [ 6] 1656 	inc	sp
   07B7 CDr3Dr05      [17] 1657 	call	_write8
   07BA 33            [ 6] 1658 	inc	sp
   07BB DD 7E F9      [19] 1659 	ld	a,-7 (ix)
   07BE F5            [11] 1660 	push	af
   07BF 33            [ 6] 1661 	inc	sp
   07C0 CDr3Dr05      [17] 1662 	call	_write8
   07C3 33            [ 6] 1663 	inc	sp
   07C4 C1            [10] 1664 	pop	bc
   07C5 C5            [11] 1665 	push	bc
   07C6 79            [ 4] 1666 	ld	a,c
   07C7 F5            [11] 1667 	push	af
   07C8 33            [ 6] 1668 	inc	sp
   07C9 CDr3Dr05      [17] 1669 	call	_write8
   07CC 33            [ 6] 1670 	inc	sp
   07CD DD 7E F9      [19] 1671 	ld	a,-7 (ix)
   07D0 F5            [11] 1672 	push	af
   07D1 33            [ 6] 1673 	inc	sp
   07D2 CDr3Dr05      [17] 1674 	call	_write8
   07D5 33            [ 6] 1675 	inc	sp
   07D6 C1            [10] 1676 	pop	bc
                           1677 ;main.c:272: }while(--i);
   07D7 DD 35 FA      [23] 1678 	dec	-6 (ix)
   07DA DD 7E FA      [19] 1679 	ld	a,-6 (ix)
   07DD B7            [ 4] 1680 	or	a, a
   07DE 20 AF         [12] 1681 	jr	NZ,00108$
   07E0 18 88         [12] 1682 	jr	00111$
   07E2                    1683 00113$:
                           1684 ;main.c:274: for(i = (uint8_t)len & 63; i--; ) {
   07E2 DD 7E FF      [19] 1685 	ld	a,-1 (ix)
   07E5 DD 77 FB      [19] 1686 	ld	-5 (ix),a
   07E8                    1687 00122$:
   07E8 DD 66 FB      [19] 1688 	ld	h,-5 (ix)
   07EB DD 35 FB      [23] 1689 	dec	-5 (ix)
   07EE 7C            [ 4] 1690 	ld	a,h
   07EF B7            [ 4] 1691 	or	a, a
   07F0 28 14         [12] 1692 	jr	Z,00117$
                           1693 ;main.c:275: write8(hi);
   07F2 C5            [11] 1694 	push	bc
   07F3 79            [ 4] 1695 	ld	a,c
   07F4 F5            [11] 1696 	push	af
   07F5 33            [ 6] 1697 	inc	sp
   07F6 CDr3Dr05      [17] 1698 	call	_write8
   07F9 33            [ 6] 1699 	inc	sp
   07FA DD 7E F9      [19] 1700 	ld	a,-7 (ix)
   07FD F5            [11] 1701 	push	af
   07FE 33            [ 6] 1702 	inc	sp
   07FF CDr3Dr05      [17] 1703 	call	_write8
   0802 33            [ 6] 1704 	inc	sp
   0803 C1            [10] 1705 	pop	bc
   0804 18 E2         [12] 1706 	jr	00122$
   0806                    1707 00117$:
                           1708 ;main.c:279: CS_IDLE;
   0806 DB 40         [11] 1709 	in	a,(_PPI_PORTA)
   0808 CB DF         [ 8] 1710 	set	3, a
   080A D3 40         [11] 1711 	out	(_PPI_PORTA),a
   080C DD F9         [10] 1712 	ld	sp, ix
   080E DD E1         [14] 1713 	pop	ix
   0810 C9            [10] 1714 	ret
   0811                    1715 _flood_end::
                           1716 ;main.c:282: void drawPixel(int16_t x, int16_t y, uint16_t color) 
                           1717 ;	---------------------------------
                           1718 ; Function drawPixel
                           1719 ; ---------------------------------
   0811                    1720 _drawPixel_start::
   0811                    1721 _drawPixel:
   0811 DD E5         [15] 1722 	push	ix
   0813 DD 21 00 00   [14] 1723 	ld	ix,#0
   0817 DD 39         [15] 1724 	add	ix,sp
                           1725 ;main.c:284: if((x < 0) || (y < 0) || (x >= TFTWIDTH) || (y >= TFTHEIGHT))
   0819 DD CB 05 7E   [20] 1726 	bit	7, 5 (ix)
   081D 20 60         [12] 1727 	jr	NZ,00106$
   081F DD CB 07 7E   [20] 1728 	bit	7, 7 (ix)
   0823 20 5A         [12] 1729 	jr	NZ,00106$
   0825 DD 7E 04      [19] 1730 	ld	a,4 (ix)
   0828 D6 F0         [ 7] 1731 	sub	a, #0xF0
   082A DD 7E 05      [19] 1732 	ld	a,5 (ix)
   082D 17            [ 4] 1733 	rla
   082E 3F            [ 4] 1734 	ccf
   082F 1F            [ 4] 1735 	rra
   0830 DE 80         [ 7] 1736 	sbc	a, #0x80
   0832 30 4B         [12] 1737 	jr	NC,00106$
   0834 DD 7E 06      [19] 1738 	ld	a,6 (ix)
   0837 D6 40         [ 7] 1739 	sub	a, #0x40
   0839 DD 7E 07      [19] 1740 	ld	a,7 (ix)
   083C 17            [ 4] 1741 	rla
   083D 3F            [ 4] 1742 	ccf
   083E 1F            [ 4] 1743 	rra
   083F DE 81         [ 7] 1744 	sbc	a, #0x81
                           1745 ;main.c:286: return;
   0841 30 3C         [12] 1746 	jr	NC,00106$
                           1747 ;main.c:288: CS_ACTIVE;
   0843 DB 40         [11] 1748 	in	a,(_PPI_PORTA)
   0845 E6 F7         [ 7] 1749 	and	a, #0xF7
   0847 D3 40         [11] 1750 	out	(_PPI_PORTA),a
                           1751 ;main.c:289: writeRegister16(0x0020, x);
   0849 DD 6E 04      [19] 1752 	ld	l,4 (ix)
   084C DD 66 05      [19] 1753 	ld	h,5 (ix)
   084F E5            [11] 1754 	push	hl
   0850 21 20 00      [10] 1755 	ld	hl,#0x0020
   0853 E5            [11] 1756 	push	hl
   0854 CDr00r05      [17] 1757 	call	_writeRegister16
   0857 F1            [10] 1758 	pop	af
   0858 F1            [10] 1759 	pop	af
                           1760 ;main.c:290: writeRegister16(0x0021, y);
   0859 DD 6E 06      [19] 1761 	ld	l,6 (ix)
   085C DD 66 07      [19] 1762 	ld	h,7 (ix)
   085F E5            [11] 1763 	push	hl
   0860 21 21 00      [10] 1764 	ld	hl,#0x0021
   0863 E5            [11] 1765 	push	hl
   0864 CDr00r05      [17] 1766 	call	_writeRegister16
   0867 F1            [10] 1767 	pop	af
   0868 F1            [10] 1768 	pop	af
                           1769 ;main.c:291: writeRegister16(0x0022, color);
   0869 DD 6E 08      [19] 1770 	ld	l,8 (ix)
   086C DD 66 09      [19] 1771 	ld	h,9 (ix)
   086F E5            [11] 1772 	push	hl
   0870 21 22 00      [10] 1773 	ld	hl,#0x0022
   0873 E5            [11] 1774 	push	hl
   0874 CDr00r05      [17] 1775 	call	_writeRegister16
   0877 F1            [10] 1776 	pop	af
   0878 F1            [10] 1777 	pop	af
                           1778 ;main.c:292: CS_IDLE;
   0879 DB 40         [11] 1779 	in	a,(_PPI_PORTA)
   087B CB DF         [ 8] 1780 	set	3, a
   087D D3 40         [11] 1781 	out	(_PPI_PORTA),a
   087F                    1782 00106$:
   087F DD E1         [14] 1783 	pop	ix
   0881 C9            [10] 1784 	ret
   0882                    1785 _drawPixel_end::
                           1786 ;main.c:295: void fillRect(int16_t x1, int16_t y1, int16_t w, int16_t h,
                           1787 ;	---------------------------------
                           1788 ; Function fillRect
                           1789 ; ---------------------------------
   0882                    1790 _fillRect_start::
   0882                    1791 _fillRect:
   0882 DD E5         [15] 1792 	push	ix
   0884 DD 21 00 00   [14] 1793 	ld	ix,#0
   0888 DD 39         [15] 1794 	add	ix,sp
   088A 21 F8 FF      [10] 1795 	ld	hl,#-8
   088D 39            [11] 1796 	add	hl,sp
   088E F9            [ 6] 1797 	ld	sp,hl
                           1798 ;main.c:299: if( (w <= 0 ) ||  (h  <= 0 ) || (x1 >= TFTWIDTH) ||  (y1 >= TFTHEIGHT) || ((x2 = x1+w-1) <  0 ) || ((y2  = y1+h-1) <  0 ))
   088F AF            [ 4] 1799 	xor	a, a
   0890 DD BE 08      [19] 1800 	cp	a, 8 (ix)
   0893 DD 9E 09      [19] 1801 	sbc	a, 9 (ix)
   0896 E2r9Br08      [10] 1802 	jp	PO, 00154$
   0899 EE 80         [ 7] 1803 	xor	a, #0x80
   089B                    1804 00154$:
   089B F2r04r0A      [10] 1805 	jp	P,00116$
   089E AF            [ 4] 1806 	xor	a, a
   089F DD BE 0A      [19] 1807 	cp	a, 10 (ix)
   08A2 DD 9E 0B      [19] 1808 	sbc	a, 11 (ix)
   08A5 E2rAAr08      [10] 1809 	jp	PO, 00155$
   08A8 EE 80         [ 7] 1810 	xor	a, #0x80
   08AA                    1811 00155$:
   08AA F2r04r0A      [10] 1812 	jp	P,00116$
   08AD DD 7E 04      [19] 1813 	ld	a,4 (ix)
   08B0 D6 F0         [ 7] 1814 	sub	a, #0xF0
   08B2 DD 7E 05      [19] 1815 	ld	a,5 (ix)
   08B5 17            [ 4] 1816 	rla
   08B6 3F            [ 4] 1817 	ccf
   08B7 1F            [ 4] 1818 	rra
   08B8 DE 80         [ 7] 1819 	sbc	a, #0x80
   08BA D2r04r0A      [10] 1820 	jp	NC,00116$
   08BD DD 7E 06      [19] 1821 	ld	a,6 (ix)
   08C0 D6 40         [ 7] 1822 	sub	a, #0x40
   08C2 DD 7E 07      [19] 1823 	ld	a,7 (ix)
   08C5 17            [ 4] 1824 	rla
   08C6 3F            [ 4] 1825 	ccf
   08C7 1F            [ 4] 1826 	rra
   08C8 DE 81         [ 7] 1827 	sbc	a, #0x81
   08CA D2r04r0A      [10] 1828 	jp	NC,00116$
   08CD DD 7E 04      [19] 1829 	ld	a,4 (ix)
   08D0 DD 86 08      [19] 1830 	add	a, 8 (ix)
   08D3 4F            [ 4] 1831 	ld	c,a
   08D4 DD 7E 05      [19] 1832 	ld	a,5 (ix)
   08D7 DD 8E 09      [19] 1833 	adc	a, 9 (ix)
   08DA 47            [ 4] 1834 	ld	b,a
   08DB 59            [ 4] 1835 	ld	e,c
   08DC 50            [ 4] 1836 	ld	d,b
   08DD 1B            [ 6] 1837 	dec	de
   08DE 6B            [ 4] 1838 	ld	l, e
   08DF 62            [ 4] 1839 	ld	h, d
   08E0 CB 7A         [ 8] 1840 	bit	7, d
   08E2 C2r04r0A      [10] 1841 	jp	NZ,00116$
   08E5 DD 7E 06      [19] 1842 	ld	a,6 (ix)
   08E8 DD 86 0A      [19] 1843 	add	a, 10 (ix)
   08EB 5F            [ 4] 1844 	ld	e,a
   08EC DD 7E 07      [19] 1845 	ld	a,7 (ix)
   08EF DD 8E 0B      [19] 1846 	adc	a, 11 (ix)
   08F2 57            [ 4] 1847 	ld	d,a
   08F3 7B            [ 4] 1848 	ld	a,e
   08F4 C6 FF         [ 7] 1849 	add	a,#0xFF
   08F6 DD 77 F8      [19] 1850 	ld	-8 (ix),a
   08F9 7A            [ 4] 1851 	ld	a,d
   08FA CE FF         [ 7] 1852 	adc	a,#0xFF
   08FC DD 77 F9      [19] 1853 	ld	-7 (ix),a
   08FF DD 7E F8      [19] 1854 	ld	a,-8 (ix)
   0902 DD 77 FA      [19] 1855 	ld	-6 (ix),a
   0905 DD 7E F9      [19] 1856 	ld	a,-7 (ix)
   0908 DD 77 FB      [19] 1857 	ld	-5 (ix),a
   090B DD CB F9 7E   [20] 1858 	bit	7, -7 (ix)
                           1859 ;main.c:300: return;
   090F C2r04r0A      [10] 1860 	jp	NZ,00116$
                           1861 ;main.c:301: if(x1 < 0) 
   0912 DD CB 05 7E   [20] 1862 	bit	7, 5 (ix)
   0916 28 0E         [12] 1863 	jr	Z,00109$
                           1864 ;main.c:303: w += x1;
   0918 DD 71 08      [19] 1865 	ld	8 (ix),c
   091B DD 70 09      [19] 1866 	ld	9 (ix),b
                           1867 ;main.c:304: x1 = 0;
   091E DD 36 04 00   [19] 1868 	ld	4 (ix),#0x00
   0922 DD 36 05 00   [19] 1869 	ld	5 (ix),#0x00
   0926                    1870 00109$:
                           1871 ;main.c:306: if(y1 < 0) 
   0926 DD CB 07 7E   [20] 1872 	bit	7, 7 (ix)
   092A 28 0E         [12] 1873 	jr	Z,00111$
                           1874 ;main.c:308: h += y1;
   092C DD 73 0A      [19] 1875 	ld	10 (ix),e
   092F DD 72 0B      [19] 1876 	ld	11 (ix),d
                           1877 ;main.c:309: y1 = 0;
   0932 DD 36 06 00   [19] 1878 	ld	6 (ix),#0x00
   0936 DD 36 07 00   [19] 1879 	ld	7 (ix),#0x00
   093A                    1880 00111$:
                           1881 ;main.c:311: if(x2 >= TFTWIDTH) {
   093A 7D            [ 4] 1882 	ld	a,l
   093B D6 F0         [ 7] 1883 	sub	a, #0xF0
   093D 7C            [ 4] 1884 	ld	a,h
   093E 17            [ 4] 1885 	rla
   093F 3F            [ 4] 1886 	ccf
   0940 1F            [ 4] 1887 	rra
   0941 DE 80         [ 7] 1888 	sbc	a, #0x80
   0943 38 16         [12] 1889 	jr	C,00113$
                           1890 ;main.c:312: x2 = TFTWIDTH - 1;
   0945 21 EF 00      [10] 1891 	ld	hl,#0x00EF
                           1892 ;main.c:313: w  = x2 - x1 + 1;
   0948 3E EF         [ 7] 1893 	ld	a,#0xEF
   094A DD 96 04      [19] 1894 	sub	a, 4 (ix)
   094D 5F            [ 4] 1895 	ld	e,a
   094E 3E 00         [ 7] 1896 	ld	a,#0x00
   0950 DD 9E 05      [19] 1897 	sbc	a, 5 (ix)
   0953 57            [ 4] 1898 	ld	d,a
   0954 13            [ 6] 1899 	inc	de
   0955 DD 73 08      [19] 1900 	ld	8 (ix),e
   0958 DD 72 09      [19] 1901 	ld	9 (ix),d
   095B                    1902 00113$:
                           1903 ;main.c:315: if(y2 >= TFTHEIGHT) {
   095B DD 7E FA      [19] 1904 	ld	a,-6 (ix)
   095E D6 40         [ 7] 1905 	sub	a, #0x40
   0960 DD 7E FB      [19] 1906 	ld	a,-5 (ix)
   0963 17            [ 4] 1907 	rla
   0964 3F            [ 4] 1908 	ccf
   0965 1F            [ 4] 1909 	rra
   0966 DE 81         [ 7] 1910 	sbc	a, #0x81
   0968 38 1B         [12] 1911 	jr	C,00115$
                           1912 ;main.c:316: y2 = TFTHEIGHT - 1;
   096A DD 36 FA 3F   [19] 1913 	ld	-6 (ix),#0x3F
   096E DD 36 FB 01   [19] 1914 	ld	-5 (ix),#0x01
                           1915 ;main.c:317: h  = y2 - y1 + 1;
   0972 3E 3F         [ 7] 1916 	ld	a,#0x3F
   0974 DD 96 06      [19] 1917 	sub	a, 6 (ix)
   0977 5F            [ 4] 1918 	ld	e,a
   0978 3E 01         [ 7] 1919 	ld	a,#0x01
   097A DD 9E 07      [19] 1920 	sbc	a, 7 (ix)
   097D 57            [ 4] 1921 	ld	d,a
   097E 13            [ 6] 1922 	inc	de
   097F DD 73 0A      [19] 1923 	ld	10 (ix),e
   0982 DD 72 0B      [19] 1924 	ld	11 (ix),d
   0985                    1925 00115$:
                           1926 ;main.c:319: setAddrWindow(x1, y1, x2, y2);
   0985 D1            [10] 1927 	pop	de
   0986 C1            [10] 1928 	pop	bc
   0987 C5            [11] 1929 	push	bc
   0988 D5            [11] 1930 	push	de
   0989 C5            [11] 1931 	push	bc
   098A E5            [11] 1932 	push	hl
   098B DD 6E 06      [19] 1933 	ld	l,6 (ix)
   098E DD 66 07      [19] 1934 	ld	h,7 (ix)
   0991 E5            [11] 1935 	push	hl
   0992 DD 6E 04      [19] 1936 	ld	l,4 (ix)
   0995 DD 66 05      [19] 1937 	ld	h,5 (ix)
   0998 E5            [11] 1938 	push	hl
   0999 CDr51r05      [17] 1939 	call	_setAddrWindow
   099C 21 08 00      [10] 1940 	ld	hl,#8
   099F 39            [11] 1941 	add	hl,sp
   09A0 F9            [ 6] 1942 	ld	sp,hl
                           1943 ;main.c:320: flood(fillcolor, (uint32_t)w * (uint32_t)h);
   09A1 DD 5E 08      [19] 1944 	ld	e,8 (ix)
   09A4 DD 56 09      [19] 1945 	ld	d,9 (ix)
   09A7 DD 7E 09      [19] 1946 	ld	a,9 (ix)
   09AA 17            [ 4] 1947 	rla
   09AB 9F            [ 4] 1948 	sbc	a, a
   09AC 4F            [ 4] 1949 	ld	c,a
   09AD 47            [ 4] 1950 	ld	b,a
   09AE DD 7E 0A      [19] 1951 	ld	a,10 (ix)
   09B1 DD 77 FC      [19] 1952 	ld	-4 (ix),a
   09B4 DD 7E 0B      [19] 1953 	ld	a,11 (ix)
   09B7 DD 77 FD      [19] 1954 	ld	-3 (ix),a
   09BA DD 7E 0B      [19] 1955 	ld	a,11 (ix)
   09BD 17            [ 4] 1956 	rla
   09BE 9F            [ 4] 1957 	sbc	a, a
   09BF DD 77 FE      [19] 1958 	ld	-2 (ix),a
   09C2 DD 77 FF      [19] 1959 	ld	-1 (ix),a
   09C5 DD 6E FE      [19] 1960 	ld	l,-2 (ix)
   09C8 DD 66 FF      [19] 1961 	ld	h,-1 (ix)
   09CB E5            [11] 1962 	push	hl
   09CC DD 6E FC      [19] 1963 	ld	l,-4 (ix)
   09CF DD 66 FD      [19] 1964 	ld	h,-3 (ix)
   09D2 E5            [11] 1965 	push	hl
   09D3 C5            [11] 1966 	push	bc
   09D4 D5            [11] 1967 	push	de
   09D5 CDr00r00      [17] 1968 	call	__mullong_rrx_s
   09D8 F1            [10] 1969 	pop	af
   09D9 F1            [10] 1970 	pop	af
   09DA F1            [10] 1971 	pop	af
   09DB F1            [10] 1972 	pop	af
   09DC EB            [ 4] 1973 	ex	de, hl
   09DD E5            [11] 1974 	push	hl
   09DE D5            [11] 1975 	push	de
   09DF DD 6E 0C      [19] 1976 	ld	l,12 (ix)
   09E2 DD 66 0D      [19] 1977 	ld	h,13 (ix)
   09E5 E5            [11] 1978 	push	hl
   09E6 CDr3Ar06      [17] 1979 	call	_flood
   09E9 21 06 00      [10] 1980 	ld	hl,#6
   09EC 39            [11] 1981 	add	hl,sp
   09ED F9            [ 6] 1982 	ld	sp,hl
                           1983 ;main.c:321: setAddrWindow(0, 0, TFTWIDTH - 1, TFTHEIGHT - 1);
   09EE 21 3F 01      [10] 1984 	ld	hl,#0x013F
   09F1 E5            [11] 1985 	push	hl
   09F2 21 EF 00      [10] 1986 	ld	hl,#0x00EF
   09F5 E5            [11] 1987 	push	hl
   09F6 2E 00         [ 7] 1988 	ld	l, #0x00
   09F8 E5            [11] 1989 	push	hl
   09F9 2E 00         [ 7] 1990 	ld	l, #0x00
   09FB E5            [11] 1991 	push	hl
   09FC CDr51r05      [17] 1992 	call	_setAddrWindow
   09FF 21 08 00      [10] 1993 	ld	hl,#8
   0A02 39            [11] 1994 	add	hl,sp
   0A03 F9            [ 6] 1995 	ld	sp,hl
   0A04                    1996 00116$:
   0A04 DD F9         [10] 1997 	ld	sp, ix
   0A06 DD E1         [14] 1998 	pop	ix
   0A08 C9            [10] 1999 	ret
   0A09                    2000 _fillRect_end::
                           2001 ;main.c:324: void drawGraf()
                           2002 ;	---------------------------------
                           2003 ; Function drawGraf
                           2004 ; ---------------------------------
   0A09                    2005 _drawGraf_start::
   0A09                    2006 _drawGraf:
   0A09 DD E5         [15] 2007 	push	ix
   0A0B DD 21 00 00   [14] 2008 	ld	ix,#0
   0A0F DD 39         [15] 2009 	add	ix,sp
   0A11 21 EB FF      [10] 2010 	ld	hl,#-21
   0A14 39            [11] 2011 	add	hl,sp
   0A15 F9            [ 6] 2012 	ld	sp,hl
                           2013 ;main.c:330: for(i = 0; i < 20; i++)
   0A16 DD 36 ED 00   [19] 2014 	ld	-19 (ix),#0x00
   0A1A DD 36 EE 00   [19] 2015 	ld	-18 (ix),#0x00
   0A1E DD 36 FE 00   [19] 2016 	ld	-2 (ix),#0x00
   0A22 DD 36 FF 00   [19] 2017 	ld	-1 (ix),#0x00
                           2018 ;main.c:332: for(y = 0; y < 20; y++)
   0A26                    2019 00133$:
   0A26 11 00 00      [10] 2020 	ld	de,#0x0000
   0A29                    2021 00111$:
                           2022 ;main.c:334: HEADER_PIXEL(header_data,pixeles);
   0A29 21 04 00      [10] 2023 	ld	hl,#0x0004
   0A2C 39            [11] 2024 	add	hl,sp
   0A2D DD 75 FA      [19] 2025 	ld	-6 (ix),l
   0A30 DD 74 FB      [19] 2026 	ld	-5 (ix),h
   0A33 2Ar04r00      [16] 2027 	ld	hl,(_header_data)
   0A36 7E            [ 7] 2028 	ld	a,(hl)
   0A37 C6 DF         [ 7] 2029 	add	a,#0xDF
   0A39 87            [ 4] 2030 	add	a, a
   0A3A 87            [ 4] 2031 	add	a, a
   0A3B 4F            [ 4] 2032 	ld	c,a
   0A3C 2Ar04r00      [16] 2033 	ld	hl,(_header_data)
   0A3F 23            [ 6] 2034 	inc	hl
   0A40 7E            [ 7] 2035 	ld	a,(hl)
   0A41 6F            [ 4] 2036 	ld	l,a
   0A42 17            [ 4] 2037 	rla
   0A43 9F            [ 4] 2038 	sbc	a, a
   0A44 67            [ 4] 2039 	ld	h,a
   0A45 7D            [ 4] 2040 	ld	a,l
   0A46 C6 DF         [ 7] 2041 	add	a,#0xDF
   0A48 6F            [ 4] 2042 	ld	l,a
   0A49 7C            [ 4] 2043 	ld	a,h
   0A4A CE FF         [ 7] 2044 	adc	a,#0xFF
   0A4C 67            [ 4] 2045 	ld	h,a
   0A4D CB 2C         [ 8] 2046 	sra	h
   0A4F CB 1D         [ 8] 2047 	rr	l
   0A51 CB 2C         [ 8] 2048 	sra	h
   0A53 CB 1D         [ 8] 2049 	rr	l
   0A55 CB 2C         [ 8] 2050 	sra	h
   0A57 CB 1D         [ 8] 2051 	rr	l
   0A59 CB 2C         [ 8] 2052 	sra	h
   0A5B CB 1D         [ 8] 2053 	rr	l
   0A5D 79            [ 4] 2054 	ld	a,c
   0A5E 17            [ 4] 2055 	rla
   0A5F 9F            [ 4] 2056 	sbc	a, a
   0A60 47            [ 4] 2057 	ld	b,a
   0A61 79            [ 4] 2058 	ld	a,c
   0A62 B5            [ 4] 2059 	or	a, l
   0A63 4F            [ 4] 2060 	ld	c,a
   0A64 78            [ 4] 2061 	ld	a,b
   0A65 B4            [ 4] 2062 	or	a, h
   0A66 DD 6E FA      [19] 2063 	ld	l,-6 (ix)
   0A69 DD 66 FB      [19] 2064 	ld	h,-5 (ix)
   0A6C 71            [ 7] 2065 	ld	(hl),c
   0A6D DD 7E FA      [19] 2066 	ld	a,-6 (ix)
   0A70 C6 01         [ 7] 2067 	add	a, #0x01
   0A72 DD 77 F2      [19] 2068 	ld	-14 (ix),a
   0A75 DD 7E FB      [19] 2069 	ld	a,-5 (ix)
   0A78 CE 00         [ 7] 2070 	adc	a, #0x00
   0A7A DD 77 F3      [19] 2071 	ld	-13 (ix),a
   0A7D 2Ar04r00      [16] 2072 	ld	hl,(_header_data)
   0A80 23            [ 6] 2073 	inc	hl
   0A81 7E            [ 7] 2074 	ld	a,(hl)
   0A82 C6 DF         [ 7] 2075 	add	a,#0xDF
   0A84 E6 0F         [ 7] 2076 	and	a, #0x0F
   0A86 07            [ 4] 2077 	rlca
   0A87 07            [ 4] 2078 	rlca
   0A88 07            [ 4] 2079 	rlca
   0A89 07            [ 4] 2080 	rlca
   0A8A E6 F0         [ 7] 2081 	and	a,#0xF0
   0A8C 4F            [ 4] 2082 	ld	c,a
   0A8D 2Ar04r00      [16] 2083 	ld	hl,(_header_data)
   0A90 23            [ 6] 2084 	inc	hl
   0A91 23            [ 6] 2085 	inc	hl
   0A92 7E            [ 7] 2086 	ld	a,(hl)
   0A93 6F            [ 4] 2087 	ld	l,a
   0A94 17            [ 4] 2088 	rla
   0A95 9F            [ 4] 2089 	sbc	a, a
   0A96 67            [ 4] 2090 	ld	h,a
   0A97 7D            [ 4] 2091 	ld	a,l
   0A98 C6 DF         [ 7] 2092 	add	a,#0xDF
   0A9A 6F            [ 4] 2093 	ld	l,a
   0A9B 7C            [ 4] 2094 	ld	a,h
   0A9C CE FF         [ 7] 2095 	adc	a,#0xFF
   0A9E 67            [ 4] 2096 	ld	h,a
   0A9F CB 2C         [ 8] 2097 	sra	h
   0AA1 CB 1D         [ 8] 2098 	rr	l
   0AA3 CB 2C         [ 8] 2099 	sra	h
   0AA5 CB 1D         [ 8] 2100 	rr	l
   0AA7 79            [ 4] 2101 	ld	a,c
   0AA8 17            [ 4] 2102 	rla
   0AA9 9F            [ 4] 2103 	sbc	a, a
   0AAA 47            [ 4] 2104 	ld	b,a
   0AAB 79            [ 4] 2105 	ld	a,c
   0AAC B5            [ 4] 2106 	or	a, l
   0AAD 4F            [ 4] 2107 	ld	c,a
   0AAE 78            [ 4] 2108 	ld	a,b
   0AAF B4            [ 4] 2109 	or	a, h
   0AB0 DD 6E F2      [19] 2110 	ld	l,-14 (ix)
   0AB3 DD 66 F3      [19] 2111 	ld	h,-13 (ix)
   0AB6 71            [ 7] 2112 	ld	(hl),c
   0AB7 DD 7E FA      [19] 2113 	ld	a,-6 (ix)
   0ABA C6 02         [ 7] 2114 	add	a, #0x02
   0ABC DD 77 F4      [19] 2115 	ld	-12 (ix),a
   0ABF DD 7E FB      [19] 2116 	ld	a,-5 (ix)
   0AC2 CE 00         [ 7] 2117 	adc	a, #0x00
   0AC4 DD 77 F5      [19] 2118 	ld	-11 (ix),a
   0AC7 2Ar04r00      [16] 2119 	ld	hl,(_header_data)
   0ACA 23            [ 6] 2120 	inc	hl
   0ACB 23            [ 6] 2121 	inc	hl
   0ACC 7E            [ 7] 2122 	ld	a,(hl)
   0ACD C6 DF         [ 7] 2123 	add	a,#0xDF
   0ACF E6 03         [ 7] 2124 	and	a, #0x03
   0AD1 0F            [ 4] 2125 	rrca
   0AD2 0F            [ 4] 2126 	rrca
   0AD3 E6 C0         [ 7] 2127 	and	a,#0xC0
   0AD5 4F            [ 4] 2128 	ld	c,a
   0AD6 2Ar04r00      [16] 2129 	ld	hl,(_header_data)
   0AD9 23            [ 6] 2130 	inc	hl
   0ADA 23            [ 6] 2131 	inc	hl
   0ADB 23            [ 6] 2132 	inc	hl
   0ADC 7E            [ 7] 2133 	ld	a,(hl)
   0ADD C6 DF         [ 7] 2134 	add	a,#0xDF
   0ADF B1            [ 4] 2135 	or	a, c
   0AE0 DD 6E F4      [19] 2136 	ld	l,-12 (ix)
   0AE3 DD 66 F5      [19] 2137 	ld	h,-11 (ix)
   0AE6 77            [ 7] 2138 	ld	(hl),a
   0AE7 21r04r00      [10] 2139 	ld	hl,#_header_data
   0AEA 7E            [ 7] 2140 	ld	a,(hl)
   0AEB C6 04         [ 7] 2141 	add	a, #0x04
   0AED 77            [ 7] 2142 	ld	(hl),a
   0AEE 23            [ 6] 2143 	inc	hl
   0AEF 7E            [ 7] 2144 	ld	a,(hl)
   0AF0 CE 00         [ 7] 2145 	adc	a, #0x00
   0AF2 77            [ 7] 2146 	ld	(hl),a
                           2147 ;main.c:335: colorAux = color565(pixeles[0],pixeles[1],pixeles[2]);
   0AF3 DD 6E F4      [19] 2148 	ld	l,-12 (ix)
   0AF6 DD 66 F5      [19] 2149 	ld	h,-11 (ix)
   0AF9 7E            [ 7] 2150 	ld	a,(hl)
   0AFA DD 6E F2      [19] 2151 	ld	l,-14 (ix)
   0AFD DD 66 F3      [19] 2152 	ld	h,-13 (ix)
   0B00 4E            [ 7] 2153 	ld	c,(hl)
   0B01 DD 6E FA      [19] 2154 	ld	l,-6 (ix)
   0B04 DD 66 FB      [19] 2155 	ld	h,-5 (ix)
   0B07 46            [ 7] 2156 	ld	b,(hl)
   0B08 D5            [11] 2157 	push	de
   0B09 F5            [11] 2158 	push	af
   0B0A 33            [ 6] 2159 	inc	sp
   0B0B 79            [ 4] 2160 	ld	a,c
   0B0C F5            [11] 2161 	push	af
   0B0D 33            [ 6] 2162 	inc	sp
   0B0E C5            [11] 2163 	push	bc
   0B0F 33            [ 6] 2164 	inc	sp
   0B10 CDrC6r14      [17] 2165 	call	_color565
   0B13 F1            [10] 2166 	pop	af
   0B14 33            [ 6] 2167 	inc	sp
   0B15 D1            [10] 2168 	pop	de
   0B16 DD 75 F6      [19] 2169 	ld	-10 (ix),l
   0B19 DD 74 F7      [19] 2170 	ld	-9 (ix),h
                           2171 ;main.c:336: cuadroMorado[i][y] = colorAux;
   0B1C DD 7E FE      [19] 2172 	ld	a,-2 (ix)
   0B1F C6r01         [ 7] 2173 	add	a, #<(_cuadroMorado)
   0B21 4F            [ 4] 2174 	ld	c,a
   0B22 DD 7E FF      [19] 2175 	ld	a,-1 (ix)
   0B25 CEs00         [ 7] 2176 	adc	a, #>(_cuadroMorado)
   0B27 47            [ 4] 2177 	ld	b,a
   0B28 6B            [ 4] 2178 	ld	l, e
   0B29 62            [ 4] 2179 	ld	h, d
   0B2A 29            [11] 2180 	add	hl, hl
   0B2B 09            [11] 2181 	add	hl,bc
   0B2C DD 7E F6      [19] 2182 	ld	a,-10 (ix)
   0B2F 77            [ 7] 2183 	ld	(hl),a
   0B30 23            [ 6] 2184 	inc	hl
   0B31 DD 7E F7      [19] 2185 	ld	a,-9 (ix)
   0B34 77            [ 7] 2186 	ld	(hl),a
                           2187 ;main.c:332: for(y = 0; y < 20; y++)
   0B35 13            [ 6] 2188 	inc	de
   0B36 7B            [ 4] 2189 	ld	a,e
   0B37 D6 14         [ 7] 2190 	sub	a, #0x14
   0B39 7A            [ 4] 2191 	ld	a,d
   0B3A 17            [ 4] 2192 	rla
   0B3B 3F            [ 4] 2193 	ccf
   0B3C 1F            [ 4] 2194 	rra
   0B3D DE 80         [ 7] 2195 	sbc	a, #0x80
   0B3F DAr29r0A      [10] 2196 	jp	C,00111$
                           2197 ;main.c:330: for(i = 0; i < 20; i++)
   0B42 DD 7E FE      [19] 2198 	ld	a,-2 (ix)
   0B45 C6 28         [ 7] 2199 	add	a, #0x28
   0B47 DD 77 FE      [19] 2200 	ld	-2 (ix),a
   0B4A DD 7E FF      [19] 2201 	ld	a,-1 (ix)
   0B4D CE 00         [ 7] 2202 	adc	a, #0x00
   0B4F DD 77 FF      [19] 2203 	ld	-1 (ix),a
   0B52 DD 34 ED      [23] 2204 	inc	-19 (ix)
   0B55 20 03         [12] 2205 	jr	NZ,00219$
   0B57 DD 34 EE      [23] 2206 	inc	-18 (ix)
   0B5A                    2207 00219$:
   0B5A DD 7E ED      [19] 2208 	ld	a,-19 (ix)
   0B5D D6 14         [ 7] 2209 	sub	a, #0x14
   0B5F DD 7E EE      [19] 2210 	ld	a,-18 (ix)
   0B62 17            [ 4] 2211 	rla
   0B63 3F            [ 4] 2212 	ccf
   0B64 1F            [ 4] 2213 	rra
   0B65 DE 80         [ 7] 2214 	sbc	a, #0x80
   0B67 DAr26r0A      [10] 2215 	jp	C,00133$
                           2216 ;main.c:339: for(i = 0; i < 20; i++)
   0B6A DD 36 ED 00   [19] 2217 	ld	-19 (ix),#0x00
   0B6E DD 36 EE 00   [19] 2218 	ld	-18 (ix),#0x00
   0B72 11 00 00      [10] 2219 	ld	de,#0x0000
                           2220 ;main.c:341: for(y = 0; y < 20; y++)
   0B75                    2221 00137$:
   0B75 21 00 00      [10] 2222 	ld	hl,#0x0000
   0B78 E3            [19] 2223 	ex	(sp), hl
   0B79                    2224 00115$:
                           2225 ;main.c:343: HEADER_PIXEL(header_Rana,pixeles);
   0B79 2Ar0Ar00      [16] 2226 	ld	hl,(_header_Rana)
   0B7C 7E            [ 7] 2227 	ld	a,(hl)
   0B7D C6 DF         [ 7] 2228 	add	a,#0xDF
   0B7F 87            [ 4] 2229 	add	a, a
   0B80 87            [ 4] 2230 	add	a, a
   0B81 4F            [ 4] 2231 	ld	c,a
   0B82 2Ar0Ar00      [16] 2232 	ld	hl,(_header_Rana)
   0B85 23            [ 6] 2233 	inc	hl
   0B86 7E            [ 7] 2234 	ld	a,(hl)
   0B87 6F            [ 4] 2235 	ld	l,a
   0B88 17            [ 4] 2236 	rla
   0B89 9F            [ 4] 2237 	sbc	a, a
   0B8A 67            [ 4] 2238 	ld	h,a
   0B8B 7D            [ 4] 2239 	ld	a,l
   0B8C C6 DF         [ 7] 2240 	add	a,#0xDF
   0B8E 6F            [ 4] 2241 	ld	l,a
   0B8F 7C            [ 4] 2242 	ld	a,h
   0B90 CE FF         [ 7] 2243 	adc	a,#0xFF
   0B92 67            [ 4] 2244 	ld	h,a
   0B93 CB 2C         [ 8] 2245 	sra	h
   0B95 CB 1D         [ 8] 2246 	rr	l
   0B97 CB 2C         [ 8] 2247 	sra	h
   0B99 CB 1D         [ 8] 2248 	rr	l
   0B9B CB 2C         [ 8] 2249 	sra	h
   0B9D CB 1D         [ 8] 2250 	rr	l
   0B9F CB 2C         [ 8] 2251 	sra	h
   0BA1 CB 1D         [ 8] 2252 	rr	l
   0BA3 79            [ 4] 2253 	ld	a,c
   0BA4 17            [ 4] 2254 	rla
   0BA5 9F            [ 4] 2255 	sbc	a, a
   0BA6 47            [ 4] 2256 	ld	b,a
   0BA7 79            [ 4] 2257 	ld	a,c
   0BA8 B5            [ 4] 2258 	or	a, l
   0BA9 4F            [ 4] 2259 	ld	c,a
   0BAA 78            [ 4] 2260 	ld	a,b
   0BAB B4            [ 4] 2261 	or	a, h
   0BAC DD 6E FA      [19] 2262 	ld	l,-6 (ix)
   0BAF DD 66 FB      [19] 2263 	ld	h,-5 (ix)
   0BB2 71            [ 7] 2264 	ld	(hl),c
   0BB3 2Ar0Ar00      [16] 2265 	ld	hl,(_header_Rana)
   0BB6 23            [ 6] 2266 	inc	hl
   0BB7 7E            [ 7] 2267 	ld	a,(hl)
   0BB8 C6 DF         [ 7] 2268 	add	a,#0xDF
   0BBA E6 0F         [ 7] 2269 	and	a, #0x0F
   0BBC 07            [ 4] 2270 	rlca
   0BBD 07            [ 4] 2271 	rlca
   0BBE 07            [ 4] 2272 	rlca
   0BBF 07            [ 4] 2273 	rlca
   0BC0 E6 F0         [ 7] 2274 	and	a,#0xF0
   0BC2 4F            [ 4] 2275 	ld	c,a
   0BC3 2Ar0Ar00      [16] 2276 	ld	hl,(_header_Rana)
   0BC6 23            [ 6] 2277 	inc	hl
   0BC7 23            [ 6] 2278 	inc	hl
   0BC8 7E            [ 7] 2279 	ld	a,(hl)
   0BC9 6F            [ 4] 2280 	ld	l,a
   0BCA 17            [ 4] 2281 	rla
   0BCB 9F            [ 4] 2282 	sbc	a, a
   0BCC 67            [ 4] 2283 	ld	h,a
   0BCD 7D            [ 4] 2284 	ld	a,l
   0BCE C6 DF         [ 7] 2285 	add	a,#0xDF
   0BD0 6F            [ 4] 2286 	ld	l,a
   0BD1 7C            [ 4] 2287 	ld	a,h
   0BD2 CE FF         [ 7] 2288 	adc	a,#0xFF
   0BD4 67            [ 4] 2289 	ld	h,a
   0BD5 CB 2C         [ 8] 2290 	sra	h
   0BD7 CB 1D         [ 8] 2291 	rr	l
   0BD9 CB 2C         [ 8] 2292 	sra	h
   0BDB CB 1D         [ 8] 2293 	rr	l
   0BDD 79            [ 4] 2294 	ld	a,c
   0BDE 17            [ 4] 2295 	rla
   0BDF 9F            [ 4] 2296 	sbc	a, a
   0BE0 47            [ 4] 2297 	ld	b,a
   0BE1 79            [ 4] 2298 	ld	a,c
   0BE2 B5            [ 4] 2299 	or	a, l
   0BE3 4F            [ 4] 2300 	ld	c,a
   0BE4 78            [ 4] 2301 	ld	a,b
   0BE5 B4            [ 4] 2302 	or	a, h
   0BE6 DD 6E F2      [19] 2303 	ld	l,-14 (ix)
   0BE9 DD 66 F3      [19] 2304 	ld	h,-13 (ix)
   0BEC 71            [ 7] 2305 	ld	(hl),c
   0BED 2Ar0Ar00      [16] 2306 	ld	hl,(_header_Rana)
   0BF0 23            [ 6] 2307 	inc	hl
   0BF1 23            [ 6] 2308 	inc	hl
   0BF2 7E            [ 7] 2309 	ld	a,(hl)
   0BF3 C6 DF         [ 7] 2310 	add	a,#0xDF
   0BF5 E6 03         [ 7] 2311 	and	a, #0x03
   0BF7 0F            [ 4] 2312 	rrca
   0BF8 0F            [ 4] 2313 	rrca
   0BF9 E6 C0         [ 7] 2314 	and	a,#0xC0
   0BFB 4F            [ 4] 2315 	ld	c,a
   0BFC 2Ar0Ar00      [16] 2316 	ld	hl,(_header_Rana)
   0BFF 23            [ 6] 2317 	inc	hl
   0C00 23            [ 6] 2318 	inc	hl
   0C01 23            [ 6] 2319 	inc	hl
   0C02 7E            [ 7] 2320 	ld	a,(hl)
   0C03 C6 DF         [ 7] 2321 	add	a,#0xDF
   0C05 B1            [ 4] 2322 	or	a, c
   0C06 DD 6E F4      [19] 2323 	ld	l,-12 (ix)
   0C09 DD 66 F5      [19] 2324 	ld	h,-11 (ix)
   0C0C 77            [ 7] 2325 	ld	(hl),a
   0C0D 21r0Ar00      [10] 2326 	ld	hl,#_header_Rana
   0C10 7E            [ 7] 2327 	ld	a,(hl)
   0C11 C6 04         [ 7] 2328 	add	a, #0x04
   0C13 77            [ 7] 2329 	ld	(hl),a
   0C14 23            [ 6] 2330 	inc	hl
   0C15 7E            [ 7] 2331 	ld	a,(hl)
   0C16 CE 00         [ 7] 2332 	adc	a, #0x00
   0C18 77            [ 7] 2333 	ld	(hl),a
                           2334 ;main.c:344: colorAux = color565(pixeles[0],pixeles[1],pixeles[2]);
   0C19 DD 6E F4      [19] 2335 	ld	l,-12 (ix)
   0C1C DD 66 F5      [19] 2336 	ld	h,-11 (ix)
   0C1F 7E            [ 7] 2337 	ld	a,(hl)
   0C20 DD 6E F2      [19] 2338 	ld	l,-14 (ix)
   0C23 DD 66 F3      [19] 2339 	ld	h,-13 (ix)
   0C26 4E            [ 7] 2340 	ld	c,(hl)
   0C27 DD 6E FA      [19] 2341 	ld	l,-6 (ix)
   0C2A DD 66 FB      [19] 2342 	ld	h,-5 (ix)
   0C2D 46            [ 7] 2343 	ld	b,(hl)
   0C2E D5            [11] 2344 	push	de
   0C2F F5            [11] 2345 	push	af
   0C30 33            [ 6] 2346 	inc	sp
   0C31 79            [ 4] 2347 	ld	a,c
   0C32 F5            [11] 2348 	push	af
   0C33 33            [ 6] 2349 	inc	sp
   0C34 C5            [11] 2350 	push	bc
   0C35 33            [ 6] 2351 	inc	sp
   0C36 CDrC6r14      [17] 2352 	call	_color565
   0C39 F1            [10] 2353 	pop	af
   0C3A 33            [ 6] 2354 	inc	sp
   0C3B D1            [10] 2355 	pop	de
   0C3C DD 75 F6      [19] 2356 	ld	-10 (ix),l
   0C3F DD 74 F7      [19] 2357 	ld	-9 (ix),h
                           2358 ;main.c:345: rana[i][y] = colorAux;
   0C42 21r21r03      [10] 2359 	ld	hl,#_rana+0
   0C45 19            [11] 2360 	add	hl,de
   0C46 4D            [ 4] 2361 	ld	c,l
   0C47 44            [ 4] 2362 	ld	b,h
   0C48 E1            [10] 2363 	pop	hl
   0C49 E5            [11] 2364 	push	hl
   0C4A 29            [11] 2365 	add	hl, hl
   0C4B 09            [11] 2366 	add	hl,bc
   0C4C DD 7E F6      [19] 2367 	ld	a,-10 (ix)
   0C4F 77            [ 7] 2368 	ld	(hl),a
   0C50 23            [ 6] 2369 	inc	hl
   0C51 DD 7E F7      [19] 2370 	ld	a,-9 (ix)
   0C54 77            [ 7] 2371 	ld	(hl),a
                           2372 ;main.c:341: for(y = 0; y < 20; y++)
   0C55 DD 34 EB      [23] 2373 	inc	-21 (ix)
   0C58 20 03         [12] 2374 	jr	NZ,00220$
   0C5A DD 34 EC      [23] 2375 	inc	-20 (ix)
   0C5D                    2376 00220$:
   0C5D DD 7E EB      [19] 2377 	ld	a,-21 (ix)
   0C60 D6 14         [ 7] 2378 	sub	a, #0x14
   0C62 DD 7E EC      [19] 2379 	ld	a,-20 (ix)
   0C65 17            [ 4] 2380 	rla
   0C66 3F            [ 4] 2381 	ccf
   0C67 1F            [ 4] 2382 	rra
   0C68 DE 80         [ 7] 2383 	sbc	a, #0x80
   0C6A DAr79r0B      [10] 2384 	jp	C,00115$
                           2385 ;main.c:339: for(i = 0; i < 20; i++)
   0C6D 21 28 00      [10] 2386 	ld	hl,#0x0028
   0C70 19            [11] 2387 	add	hl,de
   0C71 EB            [ 4] 2388 	ex	de,hl
   0C72 DD 34 ED      [23] 2389 	inc	-19 (ix)
   0C75 20 03         [12] 2390 	jr	NZ,00221$
   0C77 DD 34 EE      [23] 2391 	inc	-18 (ix)
   0C7A                    2392 00221$:
   0C7A DD 7E ED      [19] 2393 	ld	a,-19 (ix)
   0C7D D6 14         [ 7] 2394 	sub	a, #0x14
   0C7F DD 7E EE      [19] 2395 	ld	a,-18 (ix)
   0C82 17            [ 4] 2396 	rla
   0C83 3F            [ 4] 2397 	ccf
   0C84 1F            [ 4] 2398 	rra
   0C85 DE 80         [ 7] 2399 	sbc	a, #0x80
   0C87 DAr75r0B      [10] 2400 	jp	C,00137$
                           2401 ;main.c:348: for(i = 0; i < 20; i++)
   0C8A DD 36 ED 00   [19] 2402 	ld	-19 (ix),#0x00
   0C8E DD 36 EE 00   [19] 2403 	ld	-18 (ix),#0x00
   0C92 DD 36 F6 00   [19] 2404 	ld	-10 (ix),#0x00
   0C96 DD 36 F7 00   [19] 2405 	ld	-9 (ix),#0x00
                           2406 ;main.c:350: for(y = 0; y < 20; y++)
   0C9A                    2407 00141$:
   0C9A 21 00 00      [10] 2408 	ld	hl,#0x0000
   0C9D E3            [19] 2409 	ex	(sp), hl
   0C9E                    2410 00119$:
                           2411 ;main.c:352: HEADER_PIXEL(header_Rana2,pixeles);
   0C9E 2Ar10r00      [16] 2412 	ld	hl,(_header_Rana2)
   0CA1 DD 75 FE      [19] 2413 	ld	-2 (ix),l
   0CA4 DD 74 FF      [19] 2414 	ld	-1 (ix),h
   0CA7 DD 6E FE      [19] 2415 	ld	l,-2 (ix)
   0CAA DD 66 FF      [19] 2416 	ld	h,-1 (ix)
   0CAD 7E            [ 7] 2417 	ld	a,(hl)
   0CAE C6 DF         [ 7] 2418 	add	a,#0xDF
   0CB0 87            [ 4] 2419 	add	a, a
   0CB1 87            [ 4] 2420 	add	a, a
   0CB2 5F            [ 4] 2421 	ld	e,a
   0CB3 2Ar10r00      [16] 2422 	ld	hl,(_header_Rana2)
   0CB6 23            [ 6] 2423 	inc	hl
   0CB7 7E            [ 7] 2424 	ld	a,(hl)
   0CB8 DD 77 FE      [19] 2425 	ld	-2 (ix),a
   0CBB 17            [ 4] 2426 	rla
   0CBC 9F            [ 4] 2427 	sbc	a, a
   0CBD DD 77 FF      [19] 2428 	ld	-1 (ix),a
   0CC0 DD 7E FE      [19] 2429 	ld	a,-2 (ix)
   0CC3 C6 DF         [ 7] 2430 	add	a,#0xDF
   0CC5 6F            [ 4] 2431 	ld	l,a
   0CC6 DD 7E FF      [19] 2432 	ld	a,-1 (ix)
   0CC9 CE FF         [ 7] 2433 	adc	a,#0xFF
   0CCB 67            [ 4] 2434 	ld	h,a
   0CCC CB 2C         [ 8] 2435 	sra	h
   0CCE CB 1D         [ 8] 2436 	rr	l
   0CD0 CB 2C         [ 8] 2437 	sra	h
   0CD2 CB 1D         [ 8] 2438 	rr	l
   0CD4 CB 2C         [ 8] 2439 	sra	h
   0CD6 CB 1D         [ 8] 2440 	rr	l
   0CD8 CB 2C         [ 8] 2441 	sra	h
   0CDA CB 1D         [ 8] 2442 	rr	l
   0CDC 7B            [ 4] 2443 	ld	a,e
   0CDD 17            [ 4] 2444 	rla
   0CDE 9F            [ 4] 2445 	sbc	a, a
   0CDF 57            [ 4] 2446 	ld	d,a
   0CE0 7B            [ 4] 2447 	ld	a,e
   0CE1 B5            [ 4] 2448 	or	a, l
   0CE2 5F            [ 4] 2449 	ld	e,a
   0CE3 7A            [ 4] 2450 	ld	a,d
   0CE4 B4            [ 4] 2451 	or	a, h
   0CE5 DD 6E FA      [19] 2452 	ld	l,-6 (ix)
   0CE8 DD 66 FB      [19] 2453 	ld	h,-5 (ix)
   0CEB 73            [ 7] 2454 	ld	(hl),e
   0CEC 2Ar10r00      [16] 2455 	ld	hl,(_header_Rana2)
   0CEF 23            [ 6] 2456 	inc	hl
   0CF0 7E            [ 7] 2457 	ld	a,(hl)
   0CF1 C6 DF         [ 7] 2458 	add	a,#0xDF
   0CF3 E6 0F         [ 7] 2459 	and	a, #0x0F
   0CF5 07            [ 4] 2460 	rlca
   0CF6 07            [ 4] 2461 	rlca
   0CF7 07            [ 4] 2462 	rlca
   0CF8 07            [ 4] 2463 	rlca
   0CF9 E6 F0         [ 7] 2464 	and	a,#0xF0
   0CFB 4F            [ 4] 2465 	ld	c,a
   0CFC 2Ar10r00      [16] 2466 	ld	hl,(_header_Rana2)
   0CFF 23            [ 6] 2467 	inc	hl
   0D00 23            [ 6] 2468 	inc	hl
   0D01 7E            [ 7] 2469 	ld	a,(hl)
   0D02 6F            [ 4] 2470 	ld	l,a
   0D03 17            [ 4] 2471 	rla
   0D04 9F            [ 4] 2472 	sbc	a, a
   0D05 67            [ 4] 2473 	ld	h,a
   0D06 7D            [ 4] 2474 	ld	a,l
   0D07 C6 DF         [ 7] 2475 	add	a,#0xDF
   0D09 6F            [ 4] 2476 	ld	l,a
   0D0A 7C            [ 4] 2477 	ld	a,h
   0D0B CE FF         [ 7] 2478 	adc	a,#0xFF
   0D0D 67            [ 4] 2479 	ld	h,a
   0D0E CB 2C         [ 8] 2480 	sra	h
   0D10 CB 1D         [ 8] 2481 	rr	l
   0D12 CB 2C         [ 8] 2482 	sra	h
   0D14 CB 1D         [ 8] 2483 	rr	l
   0D16 79            [ 4] 2484 	ld	a,c
   0D17 17            [ 4] 2485 	rla
   0D18 9F            [ 4] 2486 	sbc	a, a
   0D19 47            [ 4] 2487 	ld	b,a
   0D1A 79            [ 4] 2488 	ld	a,c
   0D1B B5            [ 4] 2489 	or	a, l
   0D1C 57            [ 4] 2490 	ld	d,a
   0D1D 78            [ 4] 2491 	ld	a,b
   0D1E B4            [ 4] 2492 	or	a, h
   0D1F DD 6E F2      [19] 2493 	ld	l,-14 (ix)
   0D22 DD 66 F3      [19] 2494 	ld	h,-13 (ix)
   0D25 72            [ 7] 2495 	ld	(hl),d
   0D26 2Ar10r00      [16] 2496 	ld	hl,(_header_Rana2)
   0D29 23            [ 6] 2497 	inc	hl
   0D2A 23            [ 6] 2498 	inc	hl
   0D2B 7E            [ 7] 2499 	ld	a,(hl)
   0D2C C6 DF         [ 7] 2500 	add	a,#0xDF
   0D2E E6 03         [ 7] 2501 	and	a, #0x03
   0D30 0F            [ 4] 2502 	rrca
   0D31 0F            [ 4] 2503 	rrca
   0D32 E6 C0         [ 7] 2504 	and	a,#0xC0
   0D34 57            [ 4] 2505 	ld	d,a
   0D35 FD 2Ar10r00   [20] 2506 	ld	iy,(_header_Rana2)
   0D39 FD 7E 03      [19] 2507 	ld	a,3 (iy)
   0D3C C6 DF         [ 7] 2508 	add	a,#0xDF
   0D3E B2            [ 4] 2509 	or	a, d
   0D3F DD 6E F4      [19] 2510 	ld	l,-12 (ix)
   0D42 DD 66 F5      [19] 2511 	ld	h,-11 (ix)
   0D45 77            [ 7] 2512 	ld	(hl),a
   0D46 21r10r00      [10] 2513 	ld	hl,#_header_Rana2
   0D49 7E            [ 7] 2514 	ld	a,(hl)
   0D4A C6 04         [ 7] 2515 	add	a, #0x04
   0D4C 77            [ 7] 2516 	ld	(hl),a
   0D4D 23            [ 6] 2517 	inc	hl
   0D4E 7E            [ 7] 2518 	ld	a,(hl)
   0D4F CE 00         [ 7] 2519 	adc	a, #0x00
   0D51 77            [ 7] 2520 	ld	(hl),a
                           2521 ;main.c:353: colorAux = color565(pixeles[0],pixeles[1],pixeles[2]);
   0D52 DD 6E F4      [19] 2522 	ld	l,-12 (ix)
   0D55 DD 66 F5      [19] 2523 	ld	h,-11 (ix)
   0D58 46            [ 7] 2524 	ld	b,(hl)
   0D59 DD 6E F2      [19] 2525 	ld	l,-14 (ix)
   0D5C DD 66 F3      [19] 2526 	ld	h,-13 (ix)
   0D5F 56            [ 7] 2527 	ld	d,(hl)
   0D60 DD 6E FA      [19] 2528 	ld	l,-6 (ix)
   0D63 DD 66 FB      [19] 2529 	ld	h,-5 (ix)
   0D66 7E            [ 7] 2530 	ld	a,(hl)
   0D67 4A            [ 4] 2531 	ld	c, d
   0D68 C5            [11] 2532 	push	bc
   0D69 F5            [11] 2533 	push	af
   0D6A 33            [ 6] 2534 	inc	sp
   0D6B CDrC6r14      [17] 2535 	call	_color565
   0D6E F1            [10] 2536 	pop	af
   0D6F 33            [ 6] 2537 	inc	sp
   0D70 55            [ 4] 2538 	ld	d,l
   0D71 5C            [ 4] 2539 	ld	e,h
                           2540 ;main.c:354: rana2[i][y] = colorAux;
   0D72 DD 7E F6      [19] 2541 	ld	a,-10 (ix)
   0D75 C6r41         [ 7] 2542 	add	a, #<(_rana2)
   0D77 4F            [ 4] 2543 	ld	c,a
   0D78 DD 7E F7      [19] 2544 	ld	a,-9 (ix)
   0D7B CEs06         [ 7] 2545 	adc	a, #>(_rana2)
   0D7D 47            [ 4] 2546 	ld	b,a
   0D7E E1            [10] 2547 	pop	hl
   0D7F E5            [11] 2548 	push	hl
   0D80 29            [11] 2549 	add	hl, hl
   0D81 09            [11] 2550 	add	hl,bc
   0D82 72            [ 7] 2551 	ld	(hl),d
   0D83 23            [ 6] 2552 	inc	hl
   0D84 73            [ 7] 2553 	ld	(hl),e
                           2554 ;main.c:350: for(y = 0; y < 20; y++)
   0D85 DD 34 EB      [23] 2555 	inc	-21 (ix)
   0D88 20 03         [12] 2556 	jr	NZ,00222$
   0D8A DD 34 EC      [23] 2557 	inc	-20 (ix)
   0D8D                    2558 00222$:
   0D8D DD 7E EB      [19] 2559 	ld	a,-21 (ix)
   0D90 D6 14         [ 7] 2560 	sub	a, #0x14
   0D92 DD 7E EC      [19] 2561 	ld	a,-20 (ix)
   0D95 17            [ 4] 2562 	rla
   0D96 3F            [ 4] 2563 	ccf
   0D97 1F            [ 4] 2564 	rra
   0D98 DE 80         [ 7] 2565 	sbc	a, #0x80
   0D9A DAr9Er0C      [10] 2566 	jp	C,00119$
                           2567 ;main.c:348: for(i = 0; i < 20; i++)
   0D9D DD 7E F6      [19] 2568 	ld	a,-10 (ix)
   0DA0 C6 28         [ 7] 2569 	add	a, #0x28
   0DA2 DD 77 F6      [19] 2570 	ld	-10 (ix),a
   0DA5 DD 7E F7      [19] 2571 	ld	a,-9 (ix)
   0DA8 CE 00         [ 7] 2572 	adc	a, #0x00
   0DAA DD 77 F7      [19] 2573 	ld	-9 (ix),a
   0DAD DD 34 ED      [23] 2574 	inc	-19 (ix)
   0DB0 20 03         [12] 2575 	jr	NZ,00223$
   0DB2 DD 34 EE      [23] 2576 	inc	-18 (ix)
   0DB5                    2577 00223$:
   0DB5 DD 7E ED      [19] 2578 	ld	a,-19 (ix)
   0DB8 D6 14         [ 7] 2579 	sub	a, #0x14
   0DBA DD 7E EE      [19] 2580 	ld	a,-18 (ix)
   0DBD 17            [ 4] 2581 	rla
   0DBE 3F            [ 4] 2582 	ccf
   0DBF 1F            [ 4] 2583 	rra
   0DC0 DE 80         [ 7] 2584 	sbc	a, #0x80
   0DC2 DAr9Ar0C      [10] 2585 	jp	C,00141$
                           2586 ;main.c:357: for(i = 0; i < 20; i++)
   0DC5 DD 36 ED 00   [19] 2587 	ld	-19 (ix),#0x00
   0DC9 DD 36 EE 00   [19] 2588 	ld	-18 (ix),#0x00
   0DCD DD 36 F6 00   [19] 2589 	ld	-10 (ix),#0x00
   0DD1 DD 36 F7 00   [19] 2590 	ld	-9 (ix),#0x00
                           2591 ;main.c:359: for(y = 0; y < 20; y++)
   0DD5                    2592 00145$:
   0DD5 21 00 00      [10] 2593 	ld	hl,#0x0000
   0DD8 E3            [19] 2594 	ex	(sp), hl
   0DD9                    2595 00123$:
                           2596 ;main.c:361: HEADER_PIXEL(header_Rana3,pixeles);
   0DD9 2Ar16r00      [16] 2597 	ld	hl,(_header_Rana3)
   0DDC DD 75 FE      [19] 2598 	ld	-2 (ix),l
   0DDF DD 74 FF      [19] 2599 	ld	-1 (ix),h
   0DE2 DD 6E FE      [19] 2600 	ld	l,-2 (ix)
   0DE5 DD 66 FF      [19] 2601 	ld	h,-1 (ix)
   0DE8 7E            [ 7] 2602 	ld	a,(hl)
   0DE9 DD 77 FE      [19] 2603 	ld	-2 (ix), a
   0DEC C6 DF         [ 7] 2604 	add	a,#0xDF
   0DEE DD 77 FE      [19] 2605 	ld	-2 (ix), a
   0DF1 87            [ 4] 2606 	add	a, a
   0DF2 87            [ 4] 2607 	add	a, a
   0DF3 DD 77 FE      [19] 2608 	ld	-2 (ix),a
   0DF6 2Ar16r00      [16] 2609 	ld	hl,(_header_Rana3)
   0DF9 DD 75 F8      [19] 2610 	ld	-8 (ix),l
   0DFC DD 74 F9      [19] 2611 	ld	-7 (ix),h
   0DFF DD 6E F8      [19] 2612 	ld	l,-8 (ix)
   0E02 DD 66 F9      [19] 2613 	ld	h,-7 (ix)
   0E05 23            [ 6] 2614 	inc	hl
   0E06 7E            [ 7] 2615 	ld	a,(hl)
   0E07 DD 77 F8      [19] 2616 	ld	-8 (ix), a
   0E0A DD 77 F8      [19] 2617 	ld	-8 (ix), a
   0E0D 17            [ 4] 2618 	rla
   0E0E 9F            [ 4] 2619 	sbc	a, a
   0E0F DD 77 F9      [19] 2620 	ld	-7 (ix),a
   0E12 DD 7E F8      [19] 2621 	ld	a,-8 (ix)
   0E15 C6 DF         [ 7] 2622 	add	a,#0xDF
   0E17 DD 77 F8      [19] 2623 	ld	-8 (ix),a
   0E1A DD 7E F9      [19] 2624 	ld	a,-7 (ix)
   0E1D CE FF         [ 7] 2625 	adc	a,#0xFF
   0E1F DD 77 F9      [19] 2626 	ld	-7 (ix),a
   0E22 DD 6E F8      [19] 2627 	ld	l,-8 (ix)
   0E25 DD 66 F9      [19] 2628 	ld	h,-7 (ix)
   0E28 CB 2C         [ 8] 2629 	sra	h
   0E2A CB 1D         [ 8] 2630 	rr	l
   0E2C CB 2C         [ 8] 2631 	sra	h
   0E2E CB 1D         [ 8] 2632 	rr	l
   0E30 CB 2C         [ 8] 2633 	sra	h
   0E32 CB 1D         [ 8] 2634 	rr	l
   0E34 CB 2C         [ 8] 2635 	sra	h
   0E36 CB 1D         [ 8] 2636 	rr	l
   0E38 DD 5E FE      [19] 2637 	ld	e,-2 (ix)
   0E3B DD 7E FE      [19] 2638 	ld	a,-2 (ix)
   0E3E 17            [ 4] 2639 	rla
   0E3F 9F            [ 4] 2640 	sbc	a, a
   0E40 57            [ 4] 2641 	ld	d,a
   0E41 7B            [ 4] 2642 	ld	a,e
   0E42 B5            [ 4] 2643 	or	a, l
   0E43 5F            [ 4] 2644 	ld	e,a
   0E44 7A            [ 4] 2645 	ld	a,d
   0E45 B4            [ 4] 2646 	or	a, h
   0E46 DD 6E FA      [19] 2647 	ld	l,-6 (ix)
   0E49 DD 66 FB      [19] 2648 	ld	h,-5 (ix)
   0E4C 73            [ 7] 2649 	ld	(hl),e
   0E4D 2Ar16r00      [16] 2650 	ld	hl,(_header_Rana3)
   0E50 23            [ 6] 2651 	inc	hl
   0E51 7E            [ 7] 2652 	ld	a,(hl)
   0E52 C6 DF         [ 7] 2653 	add	a,#0xDF
   0E54 E6 0F         [ 7] 2654 	and	a, #0x0F
   0E56 DD 77 F8      [19] 2655 	ld	-8 (ix), a
   0E59 07            [ 4] 2656 	rlca
   0E5A 07            [ 4] 2657 	rlca
   0E5B 07            [ 4] 2658 	rlca
   0E5C 07            [ 4] 2659 	rlca
   0E5D E6 F0         [ 7] 2660 	and	a,#0xF0
   0E5F DD 77 F8      [19] 2661 	ld	-8 (ix),a
   0E62 2Ar16r00      [16] 2662 	ld	hl,(_header_Rana3)
   0E65 DD 75 FE      [19] 2663 	ld	-2 (ix),l
   0E68 DD 74 FF      [19] 2664 	ld	-1 (ix),h
   0E6B DD 6E FE      [19] 2665 	ld	l,-2 (ix)
   0E6E DD 66 FF      [19] 2666 	ld	h,-1 (ix)
   0E71 23            [ 6] 2667 	inc	hl
   0E72 23            [ 6] 2668 	inc	hl
   0E73 7E            [ 7] 2669 	ld	a,(hl)
   0E74 DD 77 FE      [19] 2670 	ld	-2 (ix), a
   0E77 DD 77 FE      [19] 2671 	ld	-2 (ix), a
   0E7A 17            [ 4] 2672 	rla
   0E7B 9F            [ 4] 2673 	sbc	a, a
   0E7C DD 77 FF      [19] 2674 	ld	-1 (ix),a
   0E7F DD 7E FE      [19] 2675 	ld	a,-2 (ix)
   0E82 C6 DF         [ 7] 2676 	add	a,#0xDF
   0E84 DD 77 FE      [19] 2677 	ld	-2 (ix),a
   0E87 DD 7E FF      [19] 2678 	ld	a,-1 (ix)
   0E8A CE FF         [ 7] 2679 	adc	a,#0xFF
   0E8C DD 77 FF      [19] 2680 	ld	-1 (ix),a
   0E8F DD 6E FE      [19] 2681 	ld	l,-2 (ix)
   0E92 DD 66 FF      [19] 2682 	ld	h,-1 (ix)
   0E95 CB 2C         [ 8] 2683 	sra	h
   0E97 CB 1D         [ 8] 2684 	rr	l
   0E99 CB 2C         [ 8] 2685 	sra	h
   0E9B CB 1D         [ 8] 2686 	rr	l
   0E9D DD 5E F8      [19] 2687 	ld	e,-8 (ix)
   0EA0 DD 7E F8      [19] 2688 	ld	a,-8 (ix)
   0EA3 17            [ 4] 2689 	rla
   0EA4 9F            [ 4] 2690 	sbc	a, a
   0EA5 57            [ 4] 2691 	ld	d,a
   0EA6 7B            [ 4] 2692 	ld	a,e
   0EA7 B5            [ 4] 2693 	or	a, l
   0EA8 5F            [ 4] 2694 	ld	e,a
   0EA9 7A            [ 4] 2695 	ld	a,d
   0EAA B4            [ 4] 2696 	or	a, h
   0EAB DD 6E F2      [19] 2697 	ld	l,-14 (ix)
   0EAE DD 66 F3      [19] 2698 	ld	h,-13 (ix)
   0EB1 73            [ 7] 2699 	ld	(hl),e
   0EB2 2Ar16r00      [16] 2700 	ld	hl,(_header_Rana3)
   0EB5 23            [ 6] 2701 	inc	hl
   0EB6 23            [ 6] 2702 	inc	hl
   0EB7 7E            [ 7] 2703 	ld	a,(hl)
   0EB8 C6 DF         [ 7] 2704 	add	a,#0xDF
   0EBA E6 03         [ 7] 2705 	and	a, #0x03
   0EBC DD 77 F8      [19] 2706 	ld	-8 (ix), a
   0EBF 0F            [ 4] 2707 	rrca
   0EC0 0F            [ 4] 2708 	rrca
   0EC1 E6 C0         [ 7] 2709 	and	a,#0xC0
   0EC3 DD 77 F8      [19] 2710 	ld	-8 (ix),a
   0EC6 2Ar16r00      [16] 2711 	ld	hl,(_header_Rana3)
   0EC9 DD 75 FE      [19] 2712 	ld	-2 (ix),l
   0ECC DD 74 FF      [19] 2713 	ld	-1 (ix),h
   0ECF DD 6E FE      [19] 2714 	ld	l,-2 (ix)
   0ED2 DD 66 FF      [19] 2715 	ld	h,-1 (ix)
   0ED5 23            [ 6] 2716 	inc	hl
   0ED6 23            [ 6] 2717 	inc	hl
   0ED7 23            [ 6] 2718 	inc	hl
   0ED8 7E            [ 7] 2719 	ld	a,(hl)
   0ED9 C6 DF         [ 7] 2720 	add	a,#0xDF
   0EDB DD B6 F8      [19] 2721 	or	a, -8 (ix)
   0EDE DD 6E F4      [19] 2722 	ld	l,-12 (ix)
   0EE1 DD 66 F5      [19] 2723 	ld	h,-11 (ix)
   0EE4 77            [ 7] 2724 	ld	(hl),a
   0EE5 21r16r00      [10] 2725 	ld	hl,#_header_Rana3
   0EE8 7E            [ 7] 2726 	ld	a,(hl)
   0EE9 C6 04         [ 7] 2727 	add	a, #0x04
   0EEB 77            [ 7] 2728 	ld	(hl),a
   0EEC 23            [ 6] 2729 	inc	hl
   0EED 7E            [ 7] 2730 	ld	a,(hl)
   0EEE CE 00         [ 7] 2731 	adc	a, #0x00
   0EF0 77            [ 7] 2732 	ld	(hl),a
                           2733 ;main.c:362: colorAux = color565(pixeles[0],pixeles[1],pixeles[2]);
   0EF1 DD 6E F4      [19] 2734 	ld	l,-12 (ix)
   0EF4 DD 66 F5      [19] 2735 	ld	h,-11 (ix)
   0EF7 46            [ 7] 2736 	ld	b,(hl)
   0EF8 DD 6E F2      [19] 2737 	ld	l,-14 (ix)
   0EFB DD 66 F3      [19] 2738 	ld	h,-13 (ix)
   0EFE 56            [ 7] 2739 	ld	d,(hl)
   0EFF DD 6E FA      [19] 2740 	ld	l,-6 (ix)
   0F02 DD 66 FB      [19] 2741 	ld	h,-5 (ix)
   0F05 7E            [ 7] 2742 	ld	a,(hl)
   0F06 4A            [ 4] 2743 	ld	c, d
   0F07 C5            [11] 2744 	push	bc
   0F08 F5            [11] 2745 	push	af
   0F09 33            [ 6] 2746 	inc	sp
   0F0A CDrC6r14      [17] 2747 	call	_color565
   0F0D F1            [10] 2748 	pop	af
   0F0E 33            [ 6] 2749 	inc	sp
   0F0F DD 74 F9      [19] 2750 	ld	-7 (ix),h
   0F12 DD 75 F8      [19] 2751 	ld	-8 (ix),l
                           2752 ;main.c:363: rana3[i][y] = colorAux;
   0F15 3Er61         [ 7] 2753 	ld	a,#<(_rana3)
   0F17 DD 86 F6      [19] 2754 	add	a, -10 (ix)
   0F1A DD 77 FE      [19] 2755 	ld	-2 (ix),a
   0F1D 3Es09         [ 7] 2756 	ld	a,#>(_rana3)
   0F1F DD 8E F7      [19] 2757 	adc	a, -9 (ix)
   0F22 DD 77 FF      [19] 2758 	ld	-1 (ix),a
   0F25 DD 7E EB      [19] 2759 	ld	a,-21 (ix)
   0F28 DD 77 FC      [19] 2760 	ld	-4 (ix),a
   0F2B DD 7E EC      [19] 2761 	ld	a,-20 (ix)
   0F2E DD 77 FD      [19] 2762 	ld	-3 (ix),a
   0F31 DD CB FC 26   [23] 2763 	sla	-4 (ix)
   0F35 DD CB FD 16   [23] 2764 	rl	-3 (ix)
   0F39 DD 7E FE      [19] 2765 	ld	a,-2 (ix)
   0F3C DD 86 FC      [19] 2766 	add	a, -4 (ix)
   0F3F DD 77 FC      [19] 2767 	ld	-4 (ix),a
   0F42 DD 7E FF      [19] 2768 	ld	a,-1 (ix)
   0F45 DD 8E FD      [19] 2769 	adc	a, -3 (ix)
   0F48 DD 77 FD      [19] 2770 	ld	-3 (ix),a
   0F4B DD 6E FC      [19] 2771 	ld	l,-4 (ix)
   0F4E DD 66 FD      [19] 2772 	ld	h,-3 (ix)
   0F51 DD 7E F8      [19] 2773 	ld	a,-8 (ix)
   0F54 77            [ 7] 2774 	ld	(hl),a
   0F55 23            [ 6] 2775 	inc	hl
   0F56 DD 7E F9      [19] 2776 	ld	a,-7 (ix)
   0F59 77            [ 7] 2777 	ld	(hl),a
                           2778 ;main.c:359: for(y = 0; y < 20; y++)
   0F5A DD 34 EB      [23] 2779 	inc	-21 (ix)
   0F5D 20 03         [12] 2780 	jr	NZ,00226$
   0F5F DD 34 EC      [23] 2781 	inc	-20 (ix)
   0F62                    2782 00226$:
   0F62 DD 7E EB      [19] 2783 	ld	a,-21 (ix)
   0F65 D6 14         [ 7] 2784 	sub	a, #0x14
   0F67 DD 7E EC      [19] 2785 	ld	a,-20 (ix)
   0F6A 17            [ 4] 2786 	rla
   0F6B 3F            [ 4] 2787 	ccf
   0F6C 1F            [ 4] 2788 	rra
   0F6D DE 80         [ 7] 2789 	sbc	a, #0x80
   0F6F DArD9r0D      [10] 2790 	jp	C,00123$
                           2791 ;main.c:357: for(i = 0; i < 20; i++)
   0F72 DD 7E F6      [19] 2792 	ld	a,-10 (ix)
   0F75 C6 28         [ 7] 2793 	add	a, #0x28
   0F77 DD 77 F6      [19] 2794 	ld	-10 (ix),a
   0F7A DD 7E F7      [19] 2795 	ld	a,-9 (ix)
   0F7D CE 00         [ 7] 2796 	adc	a, #0x00
   0F7F DD 77 F7      [19] 2797 	ld	-9 (ix),a
   0F82 DD 34 ED      [23] 2798 	inc	-19 (ix)
   0F85 20 03         [12] 2799 	jr	NZ,00227$
   0F87 DD 34 EE      [23] 2800 	inc	-18 (ix)
   0F8A                    2801 00227$:
   0F8A DD 7E ED      [19] 2802 	ld	a,-19 (ix)
   0F8D D6 14         [ 7] 2803 	sub	a, #0x14
   0F8F DD 7E EE      [19] 2804 	ld	a,-18 (ix)
   0F92 17            [ 4] 2805 	rla
   0F93 3F            [ 4] 2806 	ccf
   0F94 1F            [ 4] 2807 	rra
   0F95 DE 80         [ 7] 2808 	sbc	a, #0x80
   0F97 DArD5r0D      [10] 2809 	jp	C,00145$
                           2810 ;main.c:366: for(i = 0; i < 20; i++)
   0F9A DD 36 ED 00   [19] 2811 	ld	-19 (ix),#0x00
   0F9E DD 36 EE 00   [19] 2812 	ld	-18 (ix),#0x00
   0FA2 11 00 00      [10] 2813 	ld	de,#0x0000
                           2814 ;main.c:368: for(y = 0; y < 20; y++)
   0FA5                    2815 00149$:
   0FA5 21 00 00      [10] 2816 	ld	hl,#0x0000
   0FA8 E3            [19] 2817 	ex	(sp), hl
   0FA9                    2818 00127$:
                           2819 ;main.c:370: HEADER_PIXEL(header_Rana4,pixeles);
   0FA9 2Ar1Cr00      [16] 2820 	ld	hl,(_header_Rana4)
   0FAC 7E            [ 7] 2821 	ld	a,(hl)
   0FAD C6 DF         [ 7] 2822 	add	a,#0xDF
   0FAF 87            [ 4] 2823 	add	a, a
   0FB0 87            [ 4] 2824 	add	a, a
   0FB1 4F            [ 4] 2825 	ld	c,a
   0FB2 2Ar1Cr00      [16] 2826 	ld	hl,(_header_Rana4)
   0FB5 23            [ 6] 2827 	inc	hl
   0FB6 7E            [ 7] 2828 	ld	a,(hl)
   0FB7 6F            [ 4] 2829 	ld	l,a
   0FB8 17            [ 4] 2830 	rla
   0FB9 9F            [ 4] 2831 	sbc	a, a
   0FBA 67            [ 4] 2832 	ld	h,a
   0FBB 7D            [ 4] 2833 	ld	a,l
   0FBC C6 DF         [ 7] 2834 	add	a,#0xDF
   0FBE 6F            [ 4] 2835 	ld	l,a
   0FBF 7C            [ 4] 2836 	ld	a,h
   0FC0 CE FF         [ 7] 2837 	adc	a,#0xFF
   0FC2 67            [ 4] 2838 	ld	h,a
   0FC3 CB 2C         [ 8] 2839 	sra	h
   0FC5 CB 1D         [ 8] 2840 	rr	l
   0FC7 CB 2C         [ 8] 2841 	sra	h
   0FC9 CB 1D         [ 8] 2842 	rr	l
   0FCB CB 2C         [ 8] 2843 	sra	h
   0FCD CB 1D         [ 8] 2844 	rr	l
   0FCF CB 2C         [ 8] 2845 	sra	h
   0FD1 CB 1D         [ 8] 2846 	rr	l
   0FD3 79            [ 4] 2847 	ld	a,c
   0FD4 17            [ 4] 2848 	rla
   0FD5 9F            [ 4] 2849 	sbc	a, a
   0FD6 47            [ 4] 2850 	ld	b,a
   0FD7 79            [ 4] 2851 	ld	a,c
   0FD8 B5            [ 4] 2852 	or	a, l
   0FD9 4F            [ 4] 2853 	ld	c,a
   0FDA 78            [ 4] 2854 	ld	a,b
   0FDB B4            [ 4] 2855 	or	a, h
   0FDC DD 6E FA      [19] 2856 	ld	l,-6 (ix)
   0FDF DD 66 FB      [19] 2857 	ld	h,-5 (ix)
   0FE2 71            [ 7] 2858 	ld	(hl),c
   0FE3 2Ar1Cr00      [16] 2859 	ld	hl,(_header_Rana4)
   0FE6 23            [ 6] 2860 	inc	hl
   0FE7 7E            [ 7] 2861 	ld	a,(hl)
   0FE8 C6 DF         [ 7] 2862 	add	a,#0xDF
   0FEA E6 0F         [ 7] 2863 	and	a, #0x0F
   0FEC 07            [ 4] 2864 	rlca
   0FED 07            [ 4] 2865 	rlca
   0FEE 07            [ 4] 2866 	rlca
   0FEF 07            [ 4] 2867 	rlca
   0FF0 E6 F0         [ 7] 2868 	and	a,#0xF0
   0FF2 4F            [ 4] 2869 	ld	c,a
   0FF3 2Ar1Cr00      [16] 2870 	ld	hl,(_header_Rana4)
   0FF6 23            [ 6] 2871 	inc	hl
   0FF7 23            [ 6] 2872 	inc	hl
   0FF8 7E            [ 7] 2873 	ld	a,(hl)
   0FF9 6F            [ 4] 2874 	ld	l,a
   0FFA 17            [ 4] 2875 	rla
   0FFB 9F            [ 4] 2876 	sbc	a, a
   0FFC 67            [ 4] 2877 	ld	h,a
   0FFD 7D            [ 4] 2878 	ld	a,l
   0FFE C6 DF         [ 7] 2879 	add	a,#0xDF
   1000 6F            [ 4] 2880 	ld	l,a
   1001 7C            [ 4] 2881 	ld	a,h
   1002 CE FF         [ 7] 2882 	adc	a,#0xFF
   1004 67            [ 4] 2883 	ld	h,a
   1005 CB 2C         [ 8] 2884 	sra	h
   1007 CB 1D         [ 8] 2885 	rr	l
   1009 CB 2C         [ 8] 2886 	sra	h
   100B CB 1D         [ 8] 2887 	rr	l
   100D 79            [ 4] 2888 	ld	a,c
   100E 17            [ 4] 2889 	rla
   100F 9F            [ 4] 2890 	sbc	a, a
   1010 47            [ 4] 2891 	ld	b,a
   1011 79            [ 4] 2892 	ld	a,c
   1012 B5            [ 4] 2893 	or	a, l
   1013 4F            [ 4] 2894 	ld	c,a
   1014 78            [ 4] 2895 	ld	a,b
   1015 B4            [ 4] 2896 	or	a, h
   1016 DD 6E F2      [19] 2897 	ld	l,-14 (ix)
   1019 DD 66 F3      [19] 2898 	ld	h,-13 (ix)
   101C 71            [ 7] 2899 	ld	(hl),c
   101D 2Ar1Cr00      [16] 2900 	ld	hl,(_header_Rana4)
   1020 23            [ 6] 2901 	inc	hl
   1021 23            [ 6] 2902 	inc	hl
   1022 7E            [ 7] 2903 	ld	a,(hl)
   1023 C6 DF         [ 7] 2904 	add	a,#0xDF
   1025 E6 03         [ 7] 2905 	and	a, #0x03
   1027 0F            [ 4] 2906 	rrca
   1028 0F            [ 4] 2907 	rrca
   1029 E6 C0         [ 7] 2908 	and	a,#0xC0
   102B 47            [ 4] 2909 	ld	b,a
   102C 2Ar1Cr00      [16] 2910 	ld	hl,(_header_Rana4)
   102F 23            [ 6] 2911 	inc	hl
   1030 23            [ 6] 2912 	inc	hl
   1031 23            [ 6] 2913 	inc	hl
   1032 7E            [ 7] 2914 	ld	a,(hl)
   1033 C6 DF         [ 7] 2915 	add	a,#0xDF
   1035 B0            [ 4] 2916 	or	a, b
   1036 DD 6E F4      [19] 2917 	ld	l,-12 (ix)
   1039 DD 66 F5      [19] 2918 	ld	h,-11 (ix)
   103C 77            [ 7] 2919 	ld	(hl),a
   103D 21r1Cr00      [10] 2920 	ld	hl,#_header_Rana4
   1040 7E            [ 7] 2921 	ld	a,(hl)
   1041 C6 04         [ 7] 2922 	add	a, #0x04
   1043 77            [ 7] 2923 	ld	(hl),a
   1044 23            [ 6] 2924 	inc	hl
   1045 7E            [ 7] 2925 	ld	a,(hl)
   1046 CE 00         [ 7] 2926 	adc	a, #0x00
   1048 77            [ 7] 2927 	ld	(hl),a
                           2928 ;main.c:371: colorAux = color565(pixeles[0],pixeles[1],pixeles[2]);
   1049 DD 6E F4      [19] 2929 	ld	l,-12 (ix)
   104C DD 66 F5      [19] 2930 	ld	h,-11 (ix)
   104F 7E            [ 7] 2931 	ld	a,(hl)
   1050 DD 6E F2      [19] 2932 	ld	l,-14 (ix)
   1053 DD 66 F3      [19] 2933 	ld	h,-13 (ix)
   1056 46            [ 7] 2934 	ld	b,(hl)
   1057 DD 6E FA      [19] 2935 	ld	l,-6 (ix)
   105A DD 66 FB      [19] 2936 	ld	h,-5 (ix)
   105D 4E            [ 7] 2937 	ld	c,(hl)
   105E D5            [11] 2938 	push	de
   105F F5            [11] 2939 	push	af
   1060 33            [ 6] 2940 	inc	sp
   1061 C5            [11] 2941 	push	bc
   1062 CDrC6r14      [17] 2942 	call	_color565
   1065 F1            [10] 2943 	pop	af
   1066 33            [ 6] 2944 	inc	sp
   1067 D1            [10] 2945 	pop	de
   1068 DD 75 FC      [19] 2946 	ld	-4 (ix),l
   106B DD 74 FD      [19] 2947 	ld	-3 (ix),h
                           2948 ;main.c:372: rana4[i][y] = colorAux;
   106E 21r81r0C      [10] 2949 	ld	hl,#_rana4+0
   1071 19            [11] 2950 	add	hl,de
   1072 4D            [ 4] 2951 	ld	c,l
   1073 44            [ 4] 2952 	ld	b,h
   1074 E1            [10] 2953 	pop	hl
   1075 E5            [11] 2954 	push	hl
   1076 29            [11] 2955 	add	hl, hl
   1077 09            [11] 2956 	add	hl,bc
   1078 DD 7E FC      [19] 2957 	ld	a,-4 (ix)
   107B 77            [ 7] 2958 	ld	(hl),a
   107C 23            [ 6] 2959 	inc	hl
   107D DD 7E FD      [19] 2960 	ld	a,-3 (ix)
   1080 77            [ 7] 2961 	ld	(hl),a
                           2962 ;main.c:368: for(y = 0; y < 20; y++)
   1081 DD 34 EB      [23] 2963 	inc	-21 (ix)
   1084 20 03         [12] 2964 	jr	NZ,00228$
   1086 DD 34 EC      [23] 2965 	inc	-20 (ix)
   1089                    2966 00228$:
   1089 DD 7E EB      [19] 2967 	ld	a,-21 (ix)
   108C D6 14         [ 7] 2968 	sub	a, #0x14
   108E DD 7E EC      [19] 2969 	ld	a,-20 (ix)
   1091 17            [ 4] 2970 	rla
   1092 3F            [ 4] 2971 	ccf
   1093 1F            [ 4] 2972 	rra
   1094 DE 80         [ 7] 2973 	sbc	a, #0x80
   1096 DArA9r0F      [10] 2974 	jp	C,00127$
                           2975 ;main.c:366: for(i = 0; i < 20; i++)
   1099 21 28 00      [10] 2976 	ld	hl,#0x0028
   109C 19            [11] 2977 	add	hl,de
   109D EB            [ 4] 2978 	ex	de,hl
   109E DD 34 ED      [23] 2979 	inc	-19 (ix)
   10A1 20 03         [12] 2980 	jr	NZ,00229$
   10A3 DD 34 EE      [23] 2981 	inc	-18 (ix)
   10A6                    2982 00229$:
   10A6 DD 7E ED      [19] 2983 	ld	a,-19 (ix)
   10A9 D6 14         [ 7] 2984 	sub	a, #0x14
   10AB DD 7E EE      [19] 2985 	ld	a,-18 (ix)
   10AE 17            [ 4] 2986 	rla
   10AF 3F            [ 4] 2987 	ccf
   10B0 1F            [ 4] 2988 	rra
   10B1 DE 80         [ 7] 2989 	sbc	a, #0x80
   10B3 DArA5r0F      [10] 2990 	jp	C,00149$
   10B6 DD F9         [10] 2991 	ld	sp, ix
   10B8 DD E1         [14] 2992 	pop	ix
   10BA C9            [10] 2993 	ret
   10BB                    2994 _drawGraf_end::
                           2995 ;main.c:377: void pintaSprite(int _x, int _y, int spr)
                           2996 ;	---------------------------------
                           2997 ; Function pintaSprite
                           2998 ; ---------------------------------
   10BB                    2999 _pintaSprite_start::
   10BB                    3000 _pintaSprite:
   10BB DD E5         [15] 3001 	push	ix
   10BD DD 21 00 00   [14] 3002 	ld	ix,#0
   10C1 DD 39         [15] 3003 	add	ix,sp
   10C3 21 F4 FF      [10] 3004 	ld	hl,#-12
   10C6 39            [11] 3005 	add	hl,sp
   10C7 F9            [ 6] 3006 	ld	sp,hl
                           3007 ;main.c:381: if(spr == 1)
   10C8 DD 7E 08      [19] 3008 	ld	a,8 (ix)
   10CB 3D            [ 4] 3009 	dec	a
   10CC C2r58r11      [10] 3010 	jp	NZ,00104$
   10CF DD 7E 09      [19] 3011 	ld	a,9 (ix)
   10D2 B7            [ 4] 3012 	or	a, a
   10D3 C2r58r11      [10] 3013 	jp	NZ,00104$
                           3014 ;main.c:383: for(y = 0; y < 20; y++)
   10D6 21 00 00      [10] 3015 	ld	hl,#0x0000
   10D9 E3            [19] 3016 	ex	(sp), hl
   10DA 11 00 00      [10] 3017 	ld	de,#0x0000
                           3018 ;main.c:385: for(x = 0; x < 20; x++)
   10DD                    3019 00152$:
   10DD DD 7E F4      [19] 3020 	ld	a,-12 (ix)
   10E0 DD 86 06      [19] 3021 	add	a, 6 (ix)
   10E3 DD 77 FC      [19] 3022 	ld	-4 (ix),a
   10E6 DD 7E F5      [19] 3023 	ld	a,-11 (ix)
   10E9 DD 8E 07      [19] 3024 	adc	a, 7 (ix)
   10EC DD 77 FD      [19] 3025 	ld	-3 (ix),a
   10EF 01 00 00      [10] 3026 	ld	bc,#0x0000
   10F2                    3027 00129$:
                           3028 ;main.c:387: drawPixel(x+_x, y+_y, cuadroMorado[y][x]);
   10F2 21r01r00      [10] 3029 	ld	hl,#_cuadroMorado+0
   10F5 19            [11] 3030 	add	hl,de
   10F6 DD 75 FE      [19] 3031 	ld	-2 (ix),l
   10F9 DD 74 FF      [19] 3032 	ld	-1 (ix),h
   10FC 69            [ 4] 3033 	ld	l, c
   10FD 60            [ 4] 3034 	ld	h, b
   10FE 29            [11] 3035 	add	hl, hl
   10FF DD 7E FE      [19] 3036 	ld	a,-2 (ix)
   1102 85            [ 4] 3037 	add	a, l
   1103 6F            [ 4] 3038 	ld	l,a
   1104 DD 7E FF      [19] 3039 	ld	a,-1 (ix)
   1107 8C            [ 4] 3040 	adc	a, h
   1108 67            [ 4] 3041 	ld	h,a
   1109 7E            [ 7] 3042 	ld	a, (hl)
   110A 23            [ 6] 3043 	inc	hl
   110B 66            [ 7] 3044 	ld	h,(hl)
   110C 6F            [ 4] 3045 	ld	l,a
   110D E5            [11] 3046 	push	hl
   110E DD 6E 04      [19] 3047 	ld	l,4 (ix)
   1111 DD 66 05      [19] 3048 	ld	h,5 (ix)
   1114 E5            [11] 3049 	push	hl
   1115 FD E1         [14] 3050 	pop	iy
   1117 E1            [10] 3051 	pop	hl
   1118 FD 09         [15] 3052 	add	iy, bc
   111A C5            [11] 3053 	push	bc
   111B D5            [11] 3054 	push	de
   111C E5            [11] 3055 	push	hl
   111D DD 6E FC      [19] 3056 	ld	l,-4 (ix)
   1120 DD 66 FD      [19] 3057 	ld	h,-3 (ix)
   1123 E5            [11] 3058 	push	hl
   1124 FD E5         [15] 3059 	push	iy
   1126 CDr11r08      [17] 3060 	call	_drawPixel
   1129 21 06 00      [10] 3061 	ld	hl,#6
   112C 39            [11] 3062 	add	hl,sp
   112D F9            [ 6] 3063 	ld	sp,hl
   112E D1            [10] 3064 	pop	de
   112F C1            [10] 3065 	pop	bc
                           3066 ;main.c:385: for(x = 0; x < 20; x++)
   1130 03            [ 6] 3067 	inc	bc
   1131 79            [ 4] 3068 	ld	a,c
   1132 D6 14         [ 7] 3069 	sub	a, #0x14
   1134 78            [ 4] 3070 	ld	a,b
   1135 17            [ 4] 3071 	rla
   1136 3F            [ 4] 3072 	ccf
   1137 1F            [ 4] 3073 	rra
   1138 DE 80         [ 7] 3074 	sbc	a, #0x80
   113A 38 B6         [12] 3075 	jr	C,00129$
                           3076 ;main.c:383: for(y = 0; y < 20; y++)
   113C 21 28 00      [10] 3077 	ld	hl,#0x0028
   113F 19            [11] 3078 	add	hl,de
   1140 EB            [ 4] 3079 	ex	de,hl
   1141 DD 34 F4      [23] 3080 	inc	-12 (ix)
   1144 20 03         [12] 3081 	jr	NZ,00259$
   1146 DD 34 F5      [23] 3082 	inc	-11 (ix)
   1149                    3083 00259$:
   1149 DD 7E F4      [19] 3084 	ld	a,-12 (ix)
   114C D6 14         [ 7] 3085 	sub	a, #0x14
   114E DD 7E F5      [19] 3086 	ld	a,-11 (ix)
   1151 17            [ 4] 3087 	rla
   1152 3F            [ 4] 3088 	ccf
   1153 1F            [ 4] 3089 	rra
   1154 DE 80         [ 7] 3090 	sbc	a, #0x80
   1156 38 85         [12] 3091 	jr	C,00152$
   1158                    3092 00104$:
                           3093 ;main.c:391: if(spr == 2)
   1158 DD 7E 08      [19] 3094 	ld	a,8 (ix)
   115B D6 02         [ 7] 3095 	sub	a, #0x02
   115D C2r39r12      [10] 3096 	jp	NZ,00110$
   1160 DD 7E 09      [19] 3097 	ld	a,9 (ix)
   1163 B7            [ 4] 3098 	or	a, a
   1164 C2r39r12      [10] 3099 	jp	NZ,00110$
                           3100 ;main.c:393: for(y = 0; y < 20; y++)
   1167 21 00 00      [10] 3101 	ld	hl,#0x0000
   116A E3            [19] 3102 	ex	(sp), hl
   116B DD 36 FE 00   [19] 3103 	ld	-2 (ix),#0x00
   116F DD 36 FF 00   [19] 3104 	ld	-1 (ix),#0x00
                           3105 ;main.c:395: for(x = 0; x < 20; x++)
   1173                    3106 00157$:
   1173 DD 7E F4      [19] 3107 	ld	a,-12 (ix)
   1176 DD 86 06      [19] 3108 	add	a, 6 (ix)
   1179 DD 77 FC      [19] 3109 	ld	-4 (ix),a
   117C DD 7E F5      [19] 3110 	ld	a,-11 (ix)
   117F DD 8E 07      [19] 3111 	adc	a, 7 (ix)
   1182 DD 77 FD      [19] 3112 	ld	-3 (ix),a
   1185 DD 36 F6 00   [19] 3113 	ld	-10 (ix),#0x00
   1189 DD 36 F7 00   [19] 3114 	ld	-9 (ix),#0x00
   118D                    3115 00133$:
                           3116 ;main.c:397: if(rana[y][x] != 0x0000)
   118D 21r21r03      [10] 3117 	ld	hl,#_rana+0
   1190 DD 5E FE      [19] 3118 	ld	e,-2 (ix)
   1193 DD 56 FF      [19] 3119 	ld	d,-1 (ix)
   1196 19            [11] 3120 	add	hl,de
   1197 DD 7E F6      [19] 3121 	ld	a,-10 (ix)
   119A DD 77 FA      [19] 3122 	ld	-6 (ix),a
   119D DD 7E F7      [19] 3123 	ld	a,-9 (ix)
   11A0 DD 77 FB      [19] 3124 	ld	-5 (ix),a
   11A3 DD CB FA 26   [23] 3125 	sla	-6 (ix)
   11A7 DD CB FB 16   [23] 3126 	rl	-5 (ix)
   11AB DD 5E FA      [19] 3127 	ld	e,-6 (ix)
   11AE DD 56 FB      [19] 3128 	ld	d,-5 (ix)
   11B1 19            [11] 3129 	add	hl,de
   11B2 4E            [ 7] 3130 	ld	c,(hl)
   11B3 23            [ 6] 3131 	inc	hl
   11B4 46            [ 7] 3132 	ld	b,(hl)
   11B5 78            [ 4] 3133 	ld	a,b
   11B6 B1            [ 4] 3134 	or	a,c
   11B7 28 40         [12] 3135 	jr	Z,00134$
                           3136 ;main.c:398: drawPixel(x+_x, y+_y, rana[y][x]);
   11B9 3Er21         [ 7] 3137 	ld	a,#<(_rana)
   11BB DD 86 FE      [19] 3138 	add	a, -2 (ix)
   11BE DD 77 F8      [19] 3139 	ld	-8 (ix),a
   11C1 3Es03         [ 7] 3140 	ld	a,#>(_rana)
   11C3 DD 8E FF      [19] 3141 	adc	a, -1 (ix)
   11C6 DD 77 F9      [19] 3142 	ld	-7 (ix),a
   11C9 DD 7E F8      [19] 3143 	ld	a,-8 (ix)
   11CC DD 86 FA      [19] 3144 	add	a, -6 (ix)
   11CF 6F            [ 4] 3145 	ld	l,a
   11D0 DD 7E F9      [19] 3146 	ld	a,-7 (ix)
   11D3 DD 8E FB      [19] 3147 	adc	a, -5 (ix)
   11D6 67            [ 4] 3148 	ld	h,a
   11D7 5E            [ 7] 3149 	ld	e,(hl)
   11D8 23            [ 6] 3150 	inc	hl
   11D9 56            [ 7] 3151 	ld	d,(hl)
   11DA DD 7E 04      [19] 3152 	ld	a,4 (ix)
   11DD DD 86 F6      [19] 3153 	add	a, -10 (ix)
   11E0 6F            [ 4] 3154 	ld	l,a
   11E1 DD 7E 05      [19] 3155 	ld	a,5 (ix)
   11E4 DD 8E F7      [19] 3156 	adc	a, -9 (ix)
   11E7 67            [ 4] 3157 	ld	h,a
   11E8 D5            [11] 3158 	push	de
   11E9 DD 4E FC      [19] 3159 	ld	c,-4 (ix)
   11EC DD 46 FD      [19] 3160 	ld	b,-3 (ix)
   11EF C5            [11] 3161 	push	bc
   11F0 E5            [11] 3162 	push	hl
   11F1 CDr11r08      [17] 3163 	call	_drawPixel
   11F4 21 06 00      [10] 3164 	ld	hl,#6
   11F7 39            [11] 3165 	add	hl,sp
   11F8 F9            [ 6] 3166 	ld	sp,hl
   11F9                    3167 00134$:
                           3168 ;main.c:395: for(x = 0; x < 20; x++)
   11F9 DD 34 F6      [23] 3169 	inc	-10 (ix)
   11FC 20 03         [12] 3170 	jr	NZ,00264$
   11FE DD 34 F7      [23] 3171 	inc	-9 (ix)
   1201                    3172 00264$:
   1201 DD 7E F6      [19] 3173 	ld	a,-10 (ix)
   1204 D6 14         [ 7] 3174 	sub	a, #0x14
   1206 DD 7E F7      [19] 3175 	ld	a,-9 (ix)
   1209 17            [ 4] 3176 	rla
   120A 3F            [ 4] 3177 	ccf
   120B 1F            [ 4] 3178 	rra
   120C DE 80         [ 7] 3179 	sbc	a, #0x80
   120E DAr8Dr11      [10] 3180 	jp	C,00133$
                           3181 ;main.c:393: for(y = 0; y < 20; y++)
   1211 DD 7E FE      [19] 3182 	ld	a,-2 (ix)
   1214 C6 28         [ 7] 3183 	add	a, #0x28
   1216 DD 77 FE      [19] 3184 	ld	-2 (ix),a
   1219 DD 7E FF      [19] 3185 	ld	a,-1 (ix)
   121C CE 00         [ 7] 3186 	adc	a, #0x00
   121E DD 77 FF      [19] 3187 	ld	-1 (ix),a
   1221 DD 34 F4      [23] 3188 	inc	-12 (ix)
   1224 20 03         [12] 3189 	jr	NZ,00265$
   1226 DD 34 F5      [23] 3190 	inc	-11 (ix)
   1229                    3191 00265$:
   1229 DD 7E F4      [19] 3192 	ld	a,-12 (ix)
   122C D6 14         [ 7] 3193 	sub	a, #0x14
   122E DD 7E F5      [19] 3194 	ld	a,-11 (ix)
   1231 17            [ 4] 3195 	rla
   1232 3F            [ 4] 3196 	ccf
   1233 1F            [ 4] 3197 	rra
   1234 DE 80         [ 7] 3198 	sbc	a, #0x80
   1236 DAr73r11      [10] 3199 	jp	C,00157$
   1239                    3200 00110$:
                           3201 ;main.c:402: if(spr == 3)
   1239 DD 7E 08      [19] 3202 	ld	a,8 (ix)
   123C D6 03         [ 7] 3203 	sub	a, #0x03
   123E C2r1Ar13      [10] 3204 	jp	NZ,00116$
   1241 DD 7E 09      [19] 3205 	ld	a,9 (ix)
   1244 B7            [ 4] 3206 	or	a, a
   1245 C2r1Ar13      [10] 3207 	jp	NZ,00116$
                           3208 ;main.c:404: for(y = 0; y < 20; y++)
   1248 21 00 00      [10] 3209 	ld	hl,#0x0000
   124B E3            [19] 3210 	ex	(sp), hl
   124C DD 36 F8 00   [19] 3211 	ld	-8 (ix),#0x00
   1250 DD 36 F9 00   [19] 3212 	ld	-7 (ix),#0x00
                           3213 ;main.c:406: for(x = 0; x < 20; x++)
   1254                    3214 00162$:
   1254 DD 7E F4      [19] 3215 	ld	a,-12 (ix)
   1257 DD 86 06      [19] 3216 	add	a, 6 (ix)
   125A DD 77 FA      [19] 3217 	ld	-6 (ix),a
   125D DD 7E F5      [19] 3218 	ld	a,-11 (ix)
   1260 DD 8E 07      [19] 3219 	adc	a, 7 (ix)
   1263 DD 77 FB      [19] 3220 	ld	-5 (ix),a
   1266 DD 36 F6 00   [19] 3221 	ld	-10 (ix),#0x00
   126A DD 36 F7 00   [19] 3222 	ld	-9 (ix),#0x00
   126E                    3223 00137$:
                           3224 ;main.c:408: if(rana2[y][x] != 0x0000)
   126E 21r41r06      [10] 3225 	ld	hl,#_rana2+0
   1271 DD 5E F8      [19] 3226 	ld	e,-8 (ix)
   1274 DD 56 F9      [19] 3227 	ld	d,-7 (ix)
   1277 19            [11] 3228 	add	hl,de
   1278 DD 7E F6      [19] 3229 	ld	a,-10 (ix)
   127B DD 77 FE      [19] 3230 	ld	-2 (ix),a
   127E DD 7E F7      [19] 3231 	ld	a,-9 (ix)
   1281 DD 77 FF      [19] 3232 	ld	-1 (ix),a
   1284 DD CB FE 26   [23] 3233 	sla	-2 (ix)
   1288 DD CB FF 16   [23] 3234 	rl	-1 (ix)
   128C DD 5E FE      [19] 3235 	ld	e,-2 (ix)
   128F DD 56 FF      [19] 3236 	ld	d,-1 (ix)
   1292 19            [11] 3237 	add	hl,de
   1293 4E            [ 7] 3238 	ld	c,(hl)
   1294 23            [ 6] 3239 	inc	hl
   1295 46            [ 7] 3240 	ld	b,(hl)
   1296 78            [ 4] 3241 	ld	a,b
   1297 B1            [ 4] 3242 	or	a,c
   1298 28 40         [12] 3243 	jr	Z,00138$
                           3244 ;main.c:409: drawPixel(x+_x, y+_y, rana2[y][x]);
   129A 3Er41         [ 7] 3245 	ld	a,#<(_rana2)
   129C DD 86 F8      [19] 3246 	add	a, -8 (ix)
   129F DD 77 FC      [19] 3247 	ld	-4 (ix),a
   12A2 3Es06         [ 7] 3248 	ld	a,#>(_rana2)
   12A4 DD 8E F9      [19] 3249 	adc	a, -7 (ix)
   12A7 DD 77 FD      [19] 3250 	ld	-3 (ix),a
   12AA DD 7E FC      [19] 3251 	ld	a,-4 (ix)
   12AD DD 86 FE      [19] 3252 	add	a, -2 (ix)
   12B0 6F            [ 4] 3253 	ld	l,a
   12B1 DD 7E FD      [19] 3254 	ld	a,-3 (ix)
   12B4 DD 8E FF      [19] 3255 	adc	a, -1 (ix)
   12B7 67            [ 4] 3256 	ld	h,a
   12B8 5E            [ 7] 3257 	ld	e,(hl)
   12B9 23            [ 6] 3258 	inc	hl
   12BA 56            [ 7] 3259 	ld	d,(hl)
   12BB DD 7E 04      [19] 3260 	ld	a,4 (ix)
   12BE DD 86 F6      [19] 3261 	add	a, -10 (ix)
   12C1 6F            [ 4] 3262 	ld	l,a
   12C2 DD 7E 05      [19] 3263 	ld	a,5 (ix)
   12C5 DD 8E F7      [19] 3264 	adc	a, -9 (ix)
   12C8 67            [ 4] 3265 	ld	h,a
   12C9 D5            [11] 3266 	push	de
   12CA DD 4E FA      [19] 3267 	ld	c,-6 (ix)
   12CD DD 46 FB      [19] 3268 	ld	b,-5 (ix)
   12D0 C5            [11] 3269 	push	bc
   12D1 E5            [11] 3270 	push	hl
   12D2 CDr11r08      [17] 3271 	call	_drawPixel
   12D5 21 06 00      [10] 3272 	ld	hl,#6
   12D8 39            [11] 3273 	add	hl,sp
   12D9 F9            [ 6] 3274 	ld	sp,hl
   12DA                    3275 00138$:
                           3276 ;main.c:406: for(x = 0; x < 20; x++)
   12DA DD 34 F6      [23] 3277 	inc	-10 (ix)
   12DD 20 03         [12] 3278 	jr	NZ,00270$
   12DF DD 34 F7      [23] 3279 	inc	-9 (ix)
   12E2                    3280 00270$:
   12E2 DD 7E F6      [19] 3281 	ld	a,-10 (ix)
   12E5 D6 14         [ 7] 3282 	sub	a, #0x14
   12E7 DD 7E F7      [19] 3283 	ld	a,-9 (ix)
   12EA 17            [ 4] 3284 	rla
   12EB 3F            [ 4] 3285 	ccf
   12EC 1F            [ 4] 3286 	rra
   12ED DE 80         [ 7] 3287 	sbc	a, #0x80
   12EF DAr6Er12      [10] 3288 	jp	C,00137$
                           3289 ;main.c:404: for(y = 0; y < 20; y++)
   12F2 DD 7E F8      [19] 3290 	ld	a,-8 (ix)
   12F5 C6 28         [ 7] 3291 	add	a, #0x28
   12F7 DD 77 F8      [19] 3292 	ld	-8 (ix),a
   12FA DD 7E F9      [19] 3293 	ld	a,-7 (ix)
   12FD CE 00         [ 7] 3294 	adc	a, #0x00
   12FF DD 77 F9      [19] 3295 	ld	-7 (ix),a
   1302 DD 34 F4      [23] 3296 	inc	-12 (ix)
   1305 20 03         [12] 3297 	jr	NZ,00271$
   1307 DD 34 F5      [23] 3298 	inc	-11 (ix)
   130A                    3299 00271$:
   130A DD 7E F4      [19] 3300 	ld	a,-12 (ix)
   130D D6 14         [ 7] 3301 	sub	a, #0x14
   130F DD 7E F5      [19] 3302 	ld	a,-11 (ix)
   1312 17            [ 4] 3303 	rla
   1313 3F            [ 4] 3304 	ccf
   1314 1F            [ 4] 3305 	rra
   1315 DE 80         [ 7] 3306 	sbc	a, #0x80
   1317 DAr54r12      [10] 3307 	jp	C,00162$
   131A                    3308 00116$:
                           3309 ;main.c:413: if(spr == 4)
   131A DD 7E 08      [19] 3310 	ld	a,8 (ix)
   131D D6 04         [ 7] 3311 	sub	a, #0x04
   131F C2rFBr13      [10] 3312 	jp	NZ,00122$
   1322 DD 7E 09      [19] 3313 	ld	a,9 (ix)
   1325 B7            [ 4] 3314 	or	a, a
   1326 C2rFBr13      [10] 3315 	jp	NZ,00122$
                           3316 ;main.c:415: for(y = 0; y < 20; y++)
   1329 21 00 00      [10] 3317 	ld	hl,#0x0000
   132C E3            [19] 3318 	ex	(sp), hl
   132D DD 36 F8 00   [19] 3319 	ld	-8 (ix),#0x00
   1331 DD 36 F9 00   [19] 3320 	ld	-7 (ix),#0x00
                           3321 ;main.c:417: for(x = 0; x < 20; x++)
   1335                    3322 00167$:
   1335 DD 7E F4      [19] 3323 	ld	a,-12 (ix)
   1338 DD 86 06      [19] 3324 	add	a, 6 (ix)
   133B DD 77 FA      [19] 3325 	ld	-6 (ix),a
   133E DD 7E F5      [19] 3326 	ld	a,-11 (ix)
   1341 DD 8E 07      [19] 3327 	adc	a, 7 (ix)
   1344 DD 77 FB      [19] 3328 	ld	-5 (ix),a
   1347 DD 36 F6 00   [19] 3329 	ld	-10 (ix),#0x00
   134B DD 36 F7 00   [19] 3330 	ld	-9 (ix),#0x00
   134F                    3331 00141$:
                           3332 ;main.c:419: if(rana3[y][x] != 0x0000)
   134F 21r61r09      [10] 3333 	ld	hl,#_rana3+0
   1352 DD 5E F8      [19] 3334 	ld	e,-8 (ix)
   1355 DD 56 F9      [19] 3335 	ld	d,-7 (ix)
   1358 19            [11] 3336 	add	hl,de
   1359 DD 7E F6      [19] 3337 	ld	a,-10 (ix)
   135C DD 77 FE      [19] 3338 	ld	-2 (ix),a
   135F DD 7E F7      [19] 3339 	ld	a,-9 (ix)
   1362 DD 77 FF      [19] 3340 	ld	-1 (ix),a
   1365 DD CB FE 26   [23] 3341 	sla	-2 (ix)
   1369 DD CB FF 16   [23] 3342 	rl	-1 (ix)
   136D DD 5E FE      [19] 3343 	ld	e,-2 (ix)
   1370 DD 56 FF      [19] 3344 	ld	d,-1 (ix)
   1373 19            [11] 3345 	add	hl,de
   1374 4E            [ 7] 3346 	ld	c,(hl)
   1375 23            [ 6] 3347 	inc	hl
   1376 46            [ 7] 3348 	ld	b,(hl)
   1377 78            [ 4] 3349 	ld	a,b
   1378 B1            [ 4] 3350 	or	a,c
   1379 28 40         [12] 3351 	jr	Z,00142$
                           3352 ;main.c:420: drawPixel(x+_x, y+_y, rana3[y][x]);
   137B 3Er61         [ 7] 3353 	ld	a,#<(_rana3)
   137D DD 86 F8      [19] 3354 	add	a, -8 (ix)
   1380 DD 77 FC      [19] 3355 	ld	-4 (ix),a
   1383 3Es09         [ 7] 3356 	ld	a,#>(_rana3)
   1385 DD 8E F9      [19] 3357 	adc	a, -7 (ix)
   1388 DD 77 FD      [19] 3358 	ld	-3 (ix),a
   138B DD 7E FC      [19] 3359 	ld	a,-4 (ix)
   138E DD 86 FE      [19] 3360 	add	a, -2 (ix)
   1391 6F            [ 4] 3361 	ld	l,a
   1392 DD 7E FD      [19] 3362 	ld	a,-3 (ix)
   1395 DD 8E FF      [19] 3363 	adc	a, -1 (ix)
   1398 67            [ 4] 3364 	ld	h,a
   1399 5E            [ 7] 3365 	ld	e,(hl)
   139A 23            [ 6] 3366 	inc	hl
   139B 56            [ 7] 3367 	ld	d,(hl)
   139C DD 7E 04      [19] 3368 	ld	a,4 (ix)
   139F DD 86 F6      [19] 3369 	add	a, -10 (ix)
   13A2 6F            [ 4] 3370 	ld	l,a
   13A3 DD 7E 05      [19] 3371 	ld	a,5 (ix)
   13A6 DD 8E F7      [19] 3372 	adc	a, -9 (ix)
   13A9 67            [ 4] 3373 	ld	h,a
   13AA D5            [11] 3374 	push	de
   13AB DD 4E FA      [19] 3375 	ld	c,-6 (ix)
   13AE DD 46 FB      [19] 3376 	ld	b,-5 (ix)
   13B1 C5            [11] 3377 	push	bc
   13B2 E5            [11] 3378 	push	hl
   13B3 CDr11r08      [17] 3379 	call	_drawPixel
   13B6 21 06 00      [10] 3380 	ld	hl,#6
   13B9 39            [11] 3381 	add	hl,sp
   13BA F9            [ 6] 3382 	ld	sp,hl
   13BB                    3383 00142$:
                           3384 ;main.c:417: for(x = 0; x < 20; x++)
   13BB DD 34 F6      [23] 3385 	inc	-10 (ix)
   13BE 20 03         [12] 3386 	jr	NZ,00276$
   13C0 DD 34 F7      [23] 3387 	inc	-9 (ix)
   13C3                    3388 00276$:
   13C3 DD 7E F6      [19] 3389 	ld	a,-10 (ix)
   13C6 D6 14         [ 7] 3390 	sub	a, #0x14
   13C8 DD 7E F7      [19] 3391 	ld	a,-9 (ix)
   13CB 17            [ 4] 3392 	rla
   13CC 3F            [ 4] 3393 	ccf
   13CD 1F            [ 4] 3394 	rra
   13CE DE 80         [ 7] 3395 	sbc	a, #0x80
   13D0 DAr4Fr13      [10] 3396 	jp	C,00141$
                           3397 ;main.c:415: for(y = 0; y < 20; y++)
   13D3 DD 7E F8      [19] 3398 	ld	a,-8 (ix)
   13D6 C6 28         [ 7] 3399 	add	a, #0x28
   13D8 DD 77 F8      [19] 3400 	ld	-8 (ix),a
   13DB DD 7E F9      [19] 3401 	ld	a,-7 (ix)
   13DE CE 00         [ 7] 3402 	adc	a, #0x00
   13E0 DD 77 F9      [19] 3403 	ld	-7 (ix),a
   13E3 DD 34 F4      [23] 3404 	inc	-12 (ix)
   13E6 20 03         [12] 3405 	jr	NZ,00277$
   13E8 DD 34 F5      [23] 3406 	inc	-11 (ix)
   13EB                    3407 00277$:
   13EB DD 7E F4      [19] 3408 	ld	a,-12 (ix)
   13EE D6 14         [ 7] 3409 	sub	a, #0x14
   13F0 DD 7E F5      [19] 3410 	ld	a,-11 (ix)
   13F3 17            [ 4] 3411 	rla
   13F4 3F            [ 4] 3412 	ccf
   13F5 1F            [ 4] 3413 	rra
   13F6 DE 80         [ 7] 3414 	sbc	a, #0x80
   13F8 DAr35r13      [10] 3415 	jp	C,00167$
   13FB                    3416 00122$:
                           3417 ;main.c:424: if(spr == 5)
   13FB DD 7E 08      [19] 3418 	ld	a,8 (ix)
   13FE D6 05         [ 7] 3419 	sub	a, #0x05
   1400 C2rC1r14      [10] 3420 	jp	NZ,00149$
   1403 DD 7E 09      [19] 3421 	ld	a,9 (ix)
   1406 B7            [ 4] 3422 	or	a, a
   1407 C2rC1r14      [10] 3423 	jp	NZ,00149$
                           3424 ;main.c:426: for(y = 0; y < 20; y++)
   140A 21 00 00      [10] 3425 	ld	hl,#0x0000
   140D E3            [19] 3426 	ex	(sp), hl
   140E DD 36 F8 00   [19] 3427 	ld	-8 (ix),#0x00
   1412 DD 36 F9 00   [19] 3428 	ld	-7 (ix),#0x00
                           3429 ;main.c:428: for(x = 0; x < 20; x++)
   1416                    3430 00172$:
   1416 DD 7E F4      [19] 3431 	ld	a,-12 (ix)
   1419 DD 86 06      [19] 3432 	add	a, 6 (ix)
   141C DD 77 FA      [19] 3433 	ld	-6 (ix),a
   141F DD 7E F5      [19] 3434 	ld	a,-11 (ix)
   1422 DD 8E 07      [19] 3435 	adc	a, 7 (ix)
   1425 DD 77 FB      [19] 3436 	ld	-5 (ix),a
   1428 DD 36 F6 00   [19] 3437 	ld	-10 (ix),#0x00
   142C DD 36 F7 00   [19] 3438 	ld	-9 (ix),#0x00
   1430                    3439 00145$:
                           3440 ;main.c:430: if(rana4[y][x] != 0x0000)
   1430 3Er81         [ 7] 3441 	ld	a,#<(_rana4)
   1432 DD 86 F8      [19] 3442 	add	a, -8 (ix)
   1435 DD 77 FE      [19] 3443 	ld	-2 (ix),a
   1438 3Es0C         [ 7] 3444 	ld	a,#>(_rana4)
   143A DD 8E F9      [19] 3445 	adc	a, -7 (ix)
   143D DD 77 FF      [19] 3446 	ld	-1 (ix),a
   1440 C1            [10] 3447 	pop	bc
   1441 D1            [10] 3448 	pop	de
   1442 D5            [11] 3449 	push	de
   1443 C5            [11] 3450 	push	bc
   1444 CB 23         [ 8] 3451 	sla	e
   1446 CB 12         [ 8] 3452 	rl	d
   1448 DD 6E FE      [19] 3453 	ld	l,-2 (ix)
   144B DD 66 FF      [19] 3454 	ld	h,-1 (ix)
   144E 19            [11] 3455 	add	hl,de
   144F 4E            [ 7] 3456 	ld	c,(hl)
   1450 23            [ 6] 3457 	inc	hl
   1451 7E            [ 7] 3458 	ld	a, (hl)
   1452 B1            [ 4] 3459 	or	a,c
   1453 28 2D         [12] 3460 	jr	Z,00146$
                           3461 ;main.c:431: drawPixel(x+_x, y+_y, rana4[y][x]);
   1455 21r81r0C      [10] 3462 	ld	hl,#_rana4+0
   1458 DD 4E F8      [19] 3463 	ld	c,-8 (ix)
   145B DD 46 F9      [19] 3464 	ld	b,-7 (ix)
   145E 09            [11] 3465 	add	hl,bc
   145F 19            [11] 3466 	add	hl,de
   1460 5E            [ 7] 3467 	ld	e,(hl)
   1461 23            [ 6] 3468 	inc	hl
   1462 56            [ 7] 3469 	ld	d,(hl)
   1463 DD 7E F6      [19] 3470 	ld	a,-10 (ix)
   1466 DD 86 04      [19] 3471 	add	a, 4 (ix)
   1469 6F            [ 4] 3472 	ld	l,a
   146A DD 7E F7      [19] 3473 	ld	a,-9 (ix)
   146D DD 8E 05      [19] 3474 	adc	a, 5 (ix)
   1470 67            [ 4] 3475 	ld	h,a
   1471 D5            [11] 3476 	push	de
   1472 DD 4E FA      [19] 3477 	ld	c,-6 (ix)
   1475 DD 46 FB      [19] 3478 	ld	b,-5 (ix)
   1478 C5            [11] 3479 	push	bc
   1479 E5            [11] 3480 	push	hl
   147A CDr11r08      [17] 3481 	call	_drawPixel
   147D 21 06 00      [10] 3482 	ld	hl,#6
   1480 39            [11] 3483 	add	hl,sp
   1481 F9            [ 6] 3484 	ld	sp,hl
   1482                    3485 00146$:
                           3486 ;main.c:428: for(x = 0; x < 20; x++)
   1482 DD 34 F6      [23] 3487 	inc	-10 (ix)
   1485 20 03         [12] 3488 	jr	NZ,00282$
   1487 DD 34 F7      [23] 3489 	inc	-9 (ix)
   148A                    3490 00282$:
   148A DD 7E F6      [19] 3491 	ld	a,-10 (ix)
   148D D6 14         [ 7] 3492 	sub	a, #0x14
   148F DD 7E F7      [19] 3493 	ld	a,-9 (ix)
   1492 17            [ 4] 3494 	rla
   1493 3F            [ 4] 3495 	ccf
   1494 1F            [ 4] 3496 	rra
   1495 DE 80         [ 7] 3497 	sbc	a, #0x80
   1497 38 97         [12] 3498 	jr	C,00145$
                           3499 ;main.c:426: for(y = 0; y < 20; y++)
   1499 DD 7E F8      [19] 3500 	ld	a,-8 (ix)
   149C C6 28         [ 7] 3501 	add	a, #0x28
   149E DD 77 F8      [19] 3502 	ld	-8 (ix),a
   14A1 DD 7E F9      [19] 3503 	ld	a,-7 (ix)
   14A4 CE 00         [ 7] 3504 	adc	a, #0x00
   14A6 DD 77 F9      [19] 3505 	ld	-7 (ix),a
   14A9 DD 34 F4      [23] 3506 	inc	-12 (ix)
   14AC 20 03         [12] 3507 	jr	NZ,00283$
   14AE DD 34 F5      [23] 3508 	inc	-11 (ix)
   14B1                    3509 00283$:
   14B1 DD 7E F4      [19] 3510 	ld	a,-12 (ix)
   14B4 D6 14         [ 7] 3511 	sub	a, #0x14
   14B6 DD 7E F5      [19] 3512 	ld	a,-11 (ix)
   14B9 17            [ 4] 3513 	rla
   14BA 3F            [ 4] 3514 	ccf
   14BB 1F            [ 4] 3515 	rra
   14BC DE 80         [ 7] 3516 	sbc	a, #0x80
   14BE DAr16r14      [10] 3517 	jp	C,00172$
   14C1                    3518 00149$:
   14C1 DD F9         [10] 3519 	ld	sp, ix
   14C3 DD E1         [14] 3520 	pop	ix
   14C5 C9            [10] 3521 	ret
   14C6                    3522 _pintaSprite_end::
                           3523 ;main.c:437: uint16_t color565(uint8_t r, uint8_t g, uint8_t b) {
                           3524 ;	---------------------------------
                           3525 ; Function color565
                           3526 ; ---------------------------------
   14C6                    3527 _color565_start::
   14C6                    3528 _color565:
   14C6 DD E5         [15] 3529 	push	ix
   14C8 DD 21 00 00   [14] 3530 	ld	ix,#0
   14CC DD 39         [15] 3531 	add	ix,sp
                           3532 ;main.c:438: return ((r & 0xF8) << 8) | ((g & 0xFC) << 3) | (b >> 3);
   14CE DD 7E 04      [19] 3533 	ld	a,4 (ix)
   14D1 E6 F8         [ 7] 3534 	and	a, #0xF8
   14D3 57            [ 4] 3535 	ld	d,a
   14D4 1E 00         [ 7] 3536 	ld	e,#0x00
   14D6 DD 7E 05      [19] 3537 	ld	a,5 (ix)
   14D9 E6 FC         [ 7] 3538 	and	a, #0xFC
   14DB 6F            [ 4] 3539 	ld	l,a
   14DC 26 00         [ 7] 3540 	ld	h,#0x00
   14DE 29            [11] 3541 	add	hl, hl
   14DF 29            [11] 3542 	add	hl, hl
   14E0 29            [11] 3543 	add	hl, hl
   14E1 7D            [ 4] 3544 	ld	a,l
   14E2 B3            [ 4] 3545 	or	a, e
   14E3 6F            [ 4] 3546 	ld	l,a
   14E4 7C            [ 4] 3547 	ld	a,h
   14E5 B2            [ 4] 3548 	or	a, d
   14E6 67            [ 4] 3549 	ld	h,a
   14E7 DD 7E 06      [19] 3550 	ld	a,6 (ix)
   14EA 0F            [ 4] 3551 	rrca
   14EB 0F            [ 4] 3552 	rrca
   14EC 0F            [ 4] 3553 	rrca
   14ED E6 1F         [ 7] 3554 	and	a,#0x1F
   14EF 5F            [ 4] 3555 	ld	e,a
   14F0 16 00         [ 7] 3556 	ld	d,#0x00
   14F2 7D            [ 4] 3557 	ld	a,l
   14F3 B3            [ 4] 3558 	or	a, e
   14F4 6F            [ 4] 3559 	ld	l,a
   14F5 7C            [ 4] 3560 	ld	a,h
   14F6 B2            [ 4] 3561 	or	a, d
   14F7 67            [ 4] 3562 	ld	h,a
   14F8 DD E1         [14] 3563 	pop	ix
   14FA C9            [10] 3564 	ret
   14FB                    3565 _color565_end::
                           3566 ;main.c:441: void init_pantalla()
                           3567 ;	---------------------------------
                           3568 ; Function init_pantalla
                           3569 ; ---------------------------------
   14FB                    3570 _init_pantalla_start::
   14FB                    3571 _init_pantalla:
                           3572 ;main.c:443: drawGraf();
   14FB CDr09r0A      [17] 3573 	call	_drawGraf
                           3574 ;main.c:445: pintaAzul();
   14FE CDr22r15      [17] 3575 	call	_pintaAzul
                           3576 ;main.c:446: pintaNegro();
   1501 CDr3Br15      [17] 3577 	call	_pintaNegro
                           3578 ;main.c:448: pintaBarra(0);
   1504 21 00 00      [10] 3579 	ld	hl,#0x0000
   1507 E5            [11] 3580 	push	hl
   1508 CDr56r15      [17] 3581 	call	_pintaBarra
   150B F1            [10] 3582 	pop	af
                           3583 ;main.c:449: pintaSprite(jug.x, jug.y, 2);
   150C ED 5BrA5r0F   [20] 3584 	ld	de, (#_jug + 4)
   1510 2ArA3r0F      [16] 3585 	ld	hl, (#_jug + 2)
   1513 01 02 00      [10] 3586 	ld	bc,#0x0002
   1516 C5            [11] 3587 	push	bc
   1517 D5            [11] 3588 	push	de
   1518 E5            [11] 3589 	push	hl
   1519 CDrBBr10      [17] 3590 	call	_pintaSprite
   151C 21 06 00      [10] 3591 	ld	hl,#6
   151F 39            [11] 3592 	add	hl,sp
   1520 F9            [ 6] 3593 	ld	sp,hl
   1521 C9            [10] 3594 	ret
   1522                    3595 _init_pantalla_end::
                           3596 ;main.c:452: void pintaAzul()
                           3597 ;	---------------------------------
                           3598 ; Function pintaAzul
                           3599 ; ---------------------------------
   1522                    3600 _pintaAzul_start::
   1522                    3601 _pintaAzul:
                           3602 ;main.c:454: fillRect(0, 0, 240, 160, BLUE);
   1522 21 1F 00      [10] 3603 	ld	hl,#0x001F
   1525 E5            [11] 3604 	push	hl
   1526 2E A0         [ 7] 3605 	ld	l, #0xA0
   1528 E5            [11] 3606 	push	hl
   1529 2E F0         [ 7] 3607 	ld	l, #0xF0
   152B E5            [11] 3608 	push	hl
   152C 2E 00         [ 7] 3609 	ld	l, #0x00
   152E E5            [11] 3610 	push	hl
   152F 2E 00         [ 7] 3611 	ld	l, #0x00
   1531 E5            [11] 3612 	push	hl
   1532 CDr82r08      [17] 3613 	call	_fillRect
   1535 21 0A 00      [10] 3614 	ld	hl,#10
   1538 39            [11] 3615 	add	hl,sp
   1539 F9            [ 6] 3616 	ld	sp,hl
   153A C9            [10] 3617 	ret
   153B                    3618 _pintaAzul_end::
                           3619 ;main.c:457: void pintaNegro()
                           3620 ;	---------------------------------
                           3621 ; Function pintaNegro
                           3622 ; ---------------------------------
   153B                    3623 _pintaNegro_start::
   153B                    3624 _pintaNegro:
                           3625 ;main.c:459: fillRect(0, 160, 240, 320, BLACK);
   153B 21 00 00      [10] 3626 	ld	hl,#0x0000
   153E E5            [11] 3627 	push	hl
   153F 21 40 01      [10] 3628 	ld	hl,#0x0140
   1542 E5            [11] 3629 	push	hl
   1543 21 F0 00      [10] 3630 	ld	hl,#0x00F0
   1546 E5            [11] 3631 	push	hl
   1547 2E A0         [ 7] 3632 	ld	l, #0xA0
   1549 E5            [11] 3633 	push	hl
   154A 2E 00         [ 7] 3634 	ld	l, #0x00
   154C E5            [11] 3635 	push	hl
   154D CDr82r08      [17] 3636 	call	_fillRect
   1550 21 0A 00      [10] 3637 	ld	hl,#10
   1553 39            [11] 3638 	add	hl,sp
   1554 F9            [ 6] 3639 	ld	sp,hl
   1555 C9            [10] 3640 	ret
   1556                    3641 _pintaNegro_end::
                           3642 ;main.c:462: void pintaBarra(int i)
                           3643 ;	---------------------------------
                           3644 ; Function pintaBarra
                           3645 ; ---------------------------------
   1556                    3646 _pintaBarra_start::
   1556                    3647 _pintaBarra:
                           3648 ;main.c:464: if(i == 0)
   1556 21 03 00      [10] 3649 	ld	hl, #2+1
   1559 39            [11] 3650 	add	hl, sp
   155A 7E            [ 7] 3651 	ld	a, (hl)
   155B 2B            [ 6] 3652 	dec	hl
   155C B6            [ 7] 3653 	or	a,(hl)
   155D C0            [11] 3654 	ret	NZ
                           3655 ;main.c:465: for(i=0; i < 12; i++){
   155E 11 00 00      [10] 3656 	ld	de,#0x0000
   1561 21 00 00      [10] 3657 	ld	hl,#0x0000
   1564                    3658 00104$:
                           3659 ;main.c:466: pintaSprite(i*20, 280, 1);
   1564 E5            [11] 3660 	push	hl
   1565 D5            [11] 3661 	push	de
   1566 01 01 00      [10] 3662 	ld	bc,#0x0001
   1569 C5            [11] 3663 	push	bc
   156A 01 18 01      [10] 3664 	ld	bc,#0x0118
   156D C5            [11] 3665 	push	bc
   156E E5            [11] 3666 	push	hl
   156F CDrBBr10      [17] 3667 	call	_pintaSprite
   1572 21 06 00      [10] 3668 	ld	hl,#6
   1575 39            [11] 3669 	add	hl,sp
   1576 F9            [ 6] 3670 	ld	sp,hl
   1577 D1            [10] 3671 	pop	de
   1578 E1            [10] 3672 	pop	hl
                           3673 ;main.c:467: pintaSprite(i*20, 160, 1);
   1579 E5            [11] 3674 	push	hl
   157A D5            [11] 3675 	push	de
   157B 01 01 00      [10] 3676 	ld	bc,#0x0001
   157E C5            [11] 3677 	push	bc
   157F 01 A0 00      [10] 3678 	ld	bc,#0x00A0
   1582 C5            [11] 3679 	push	bc
   1583 E5            [11] 3680 	push	hl
   1584 CDrBBr10      [17] 3681 	call	_pintaSprite
   1587 21 06 00      [10] 3682 	ld	hl,#6
   158A 39            [11] 3683 	add	hl,sp
   158B F9            [ 6] 3684 	ld	sp,hl
   158C D1            [10] 3685 	pop	de
   158D E1            [10] 3686 	pop	hl
                           3687 ;main.c:465: for(i=0; i < 12; i++){
   158E 01 14 00      [10] 3688 	ld	bc,#0x0014
   1591 09            [11] 3689 	add	hl,bc
   1592 13            [ 6] 3690 	inc	de
   1593 7B            [ 4] 3691 	ld	a,e
   1594 D6 0C         [ 7] 3692 	sub	a, #0x0C
   1596 7A            [ 4] 3693 	ld	a,d
   1597 17            [ 4] 3694 	rla
   1598 3F            [ 4] 3695 	ccf
   1599 1F            [ 4] 3696 	rra
   159A DE 80         [ 7] 3697 	sbc	a, #0x80
   159C 38 C6         [12] 3698 	jr	C,00104$
   159E C9            [10] 3699 	ret
   159F                    3700 _pintaBarra_end::
                           3701 ;main.c:471: void repinta_rana(int i)
                           3702 ;	---------------------------------
                           3703 ; Function repinta_rana
                           3704 ; ---------------------------------
   159F                    3705 _repinta_rana_start::
   159F                    3706 _repinta_rana:
   159F DD E5         [15] 3707 	push	ix
   15A1 DD 21 00 00   [14] 3708 	ld	ix,#0
   15A5 DD 39         [15] 3709 	add	ix,sp
                           3710 ;main.c:473: if(jug.altura <= 7)
   15A7 2ArA1r0F      [16] 3711 	ld	hl, (#_jug + 0)
   15AA 3E 07         [ 7] 3712 	ld	a,#0x07
   15AC BD            [ 4] 3713 	cp	a, l
   15AD 3E 00         [ 7] 3714 	ld	a,#0x00
   15AF 9C            [ 4] 3715 	sbc	a, h
   15B0 E2rB5r15      [10] 3716 	jp	PO, 00117$
   15B3 EE 80         [ 7] 3717 	xor	a, #0x80
   15B5                    3718 00117$:
   15B5 FArD7r15      [10] 3719 	jp	M,00102$
                           3720 ;main.c:475: fillRect(jug.x, jug.y, 20, 20, BLUE);
   15B8 ED 5BrA5r0F   [20] 3721 	ld	de, (#_jug + 4)
   15BC 2ArA3r0F      [16] 3722 	ld	hl, (#_jug + 2)
   15BF 01 1F 00      [10] 3723 	ld	bc,#0x001F
   15C2 C5            [11] 3724 	push	bc
   15C3 01 14 00      [10] 3725 	ld	bc,#0x0014
   15C6 C5            [11] 3726 	push	bc
   15C7 01 14 00      [10] 3727 	ld	bc,#0x0014
   15CA C5            [11] 3728 	push	bc
   15CB D5            [11] 3729 	push	de
   15CC E5            [11] 3730 	push	hl
   15CD CDr82r08      [17] 3731 	call	_fillRect
   15D0 21 0A 00      [10] 3732 	ld	hl,#10
   15D3 39            [11] 3733 	add	hl,sp
   15D4 F9            [ 6] 3734 	ld	sp,hl
   15D5 18 1D         [12] 3735 	jr	00103$
   15D7                    3736 00102$:
                           3737 ;main.c:478: fillRect(jug.x, jug.y, 20, 20, BLACK);
   15D7 ED 5BrA5r0F   [20] 3738 	ld	de, (#_jug + 4)
   15DB 2ArA3r0F      [16] 3739 	ld	hl, (#_jug + 2)
   15DE 01 00 00      [10] 3740 	ld	bc,#0x0000
   15E1 C5            [11] 3741 	push	bc
   15E2 01 14 00      [10] 3742 	ld	bc,#0x0014
   15E5 C5            [11] 3743 	push	bc
   15E6 01 14 00      [10] 3744 	ld	bc,#0x0014
   15E9 C5            [11] 3745 	push	bc
   15EA D5            [11] 3746 	push	de
   15EB E5            [11] 3747 	push	hl
   15EC CDr82r08      [17] 3748 	call	_fillRect
   15EF 21 0A 00      [10] 3749 	ld	hl,#10
   15F2 39            [11] 3750 	add	hl,sp
   15F3 F9            [ 6] 3751 	ld	sp,hl
   15F4                    3752 00103$:
                           3753 ;main.c:480: switch(jug.altura)
   15F4 2ArA1r0F      [16] 3754 	ld	hl, (#_jug + 0)
   15F7 7D            [ 4] 3755 	ld	a,l
   15F8 D6 08         [ 7] 3756 	sub	a,#0x08
   15FA 20 03         [12] 3757 	jr	NZ,00118$
   15FC B4            [ 4] 3758 	or	a,h
   15FD 28 08         [12] 3759 	jr	Z,00105$
   15FF                    3760 00118$:
   15FF 7D            [ 4] 3761 	ld	a,l
   1600 D6 0F         [ 7] 3762 	sub	a,#0x0F
   1602 20 18         [12] 3763 	jr	NZ,00107$
   1604 B4            [ 4] 3764 	or	a,h
   1605 20 15         [12] 3765 	jr	NZ,00107$
                           3766 ;main.c:483: case 8:
   1607                    3767 00105$:
                           3768 ;main.c:484: pintaSprite(jug.x, jug.y, 1);
   1607 ED 5BrA5r0F   [20] 3769 	ld	de, (#_jug + 4)
   160B 2ArA3r0F      [16] 3770 	ld	hl, (#_jug + 2)
   160E 01 01 00      [10] 3771 	ld	bc,#0x0001
   1611 C5            [11] 3772 	push	bc
   1612 D5            [11] 3773 	push	de
   1613 E5            [11] 3774 	push	hl
   1614 CDrBBr10      [17] 3775 	call	_pintaSprite
   1617 21 06 00      [10] 3776 	ld	hl,#6
   161A 39            [11] 3777 	add	hl,sp
   161B F9            [ 6] 3778 	ld	sp,hl
                           3779 ;main.c:486: }
   161C                    3780 00107$:
   161C DD E1         [14] 3781 	pop	ix
   161E C9            [10] 3782 	ret
   161F                    3783 _repinta_rana_end::
                           3784 	.area _CODE
   161F                    3785 ___str_0:
   161F 21 21 21 21 21 21  3786 	.ascii "!!!!!!!!!!!!!!!!!!!!!!!!FQ$XFQ$XFQ$X!!!!FQ$X!!!!!!!!!!!!!!!!"
        21 21 21 21 21 21
        21 21 21 21 21 21
        21 21 21 21 21 21
        46 51 24 58 46 51
        24 58 46 51 24 58
        21 21 21 21 46 51
        24 58 21 21 21 21
        21 21 21 21 21 21
        21 21 21 21 21 21
   165B 21 21 21 21 21 21  3787 	.ascii "!!!!!!!!FQ$X!!!!!!!!!!!!!!!!FQ$X!!!!!!!!!!!!FQ$XFQ$X!!!!!!!!"
        21 21 46 51 24 58
        21 21 21 21 21 21
        21 21 21 21 21 21
        21 21 21 21 46 51
        24 58 21 21 21 21
        21 21 21 21 21 21
        21 21 46 51 24 58
        46 51 24 58 21 21
        21 21 21 21 21 21
   1697 46 51 24 58 21 21  3788 	.ascii "FQ$X!!!!FQ$XFQ$XFQ$X!!!!!!!!FQ$XFQ$X!!!!FQ$X!!!!FQ$XFQ$XFQ$X"
        21 21 46 51 24 58
        46 51 24 58 46 51
        24 58 21 21 21 21
        21 21 21 21 46 51
        24 58 46 51 24 58
        21 21 21 21 46 51
        24 58 21 21 21 21
        46 51 24 58 46 51
        24 58 46 51 24 58
   16D3 21 21 21 21 46 51  3789 	.ascii "!!!!FQ$XFQ$X!!!!!!!!FQ$X!!!!FQ$XFQ$XFQ$XFQ$XFQ$XFQ$XFQ$X!!!!"
        24 58 46 51 24 58
        21 21 21 21 21 21
        21 21 46 51 24 58
        21 21 21 21 46 51
        24 58 46 51 24 58
        46 51 24 58 46 51
        24 58 46 51 24 58
        46 51 24 58 46 51
        24 58 21 21 21 21
   170F 46 51 24 58 46 51  3790 	.ascii "FQ$XFQ$XFQ$XFQ$XFQ$XFQ$XFQ$XFQ$XFQ$XFQ$XFQ$XFQ$XFQ$XFQ$XFQ$X"
        24 58 46 51 24 58
        46 51 24 58 46 51
        24 58 46 51 24 58
        46 51 24 58 46 51
        24 58 46 51 24 58
        46 51 24 58 46 51
        24 58 46 51 24 58
        46 51 24 58 46 51
        24 58 46 51 24 58
   174B 46 51 24 58 46 51  3791 	.ascii "FQ$XFQ$XFQ$XFQ$X!!!!FQ$XFQ$XFQ$XFQ$X!!$XFQ$XFQ$XFQ$XFQ$X!!$X"
        24 58 46 51 24 58
        46 51 24 58 21 21
        21 21 46 51 24 58
        46 51 24 58 46 51
        24 58 46 51 24 58
        21 21 24 58 46 51
        24 58 46 51 24 58
        46 51 24 58 46 51
        24 58 21 21 24 58
   1787 46 51 24 58 46 51  3792 	.ascii "FQ$XFQ$XFQ$XFQ$XFQ$X!!$XFQ$XFQ$XFQ$XFQ$XFQ$XFQ$XFQ$X!!$X`Q!!"
        24 58 46 51 24 58
        46 51 24 58 46 51
        24 58 21 21 24 58
        46 51 24 58 46 51
        24 58 46 51 24 58
        46 51 24 58 46 51
        24 58 46 51 24 58
        46 51 24 58 21 21
        24 58 60 51 21 21
   17C3 21 21 24 58 46 51  3793 	.ascii "!!$XFQ$XFQ$X!!$X`Q!!!!$XFQ$XFQ$XFQ$X!!$X`Q!!!!$XFQ$XFQ$XFQ$X"
        24 58 46 51 24 58
        21 21 24 58 60 51
        21 21 21 21 24 58
        46 51 24 58 46 51
        24 58 46 51 24 58
        21 21 24 58 60 51
        21 21 21 21 24 58
        46 51 24 58 46 51
        24 58 46 51 24 58
   17FF 46 51 24 58 46 51  3794 	.ascii "FQ$XFQ$XFQ$XFQ$X!!$XFQ$XFQ$XFQ$XFQ$X!!$XFQ$XFQ$XFQ$XFQ$XFQ$X"
        24 58 46 51 24 58
        46 51 24 58 21 21
        24 58 46 51 24 58
        46 51 24 58 46 51
        24 58 46 51 24 58
        21 21 24 58 46 51
        24 58 46 51 24 58
        46 51 24 58 46 51
        24 58 46 51 24 58
   183B 21 21 24 58 46 51  3795 	.ascii "!!$XFQ$XFQ$XFQ$XFQ$XFQ$XFQ$XFQ$XFQ$XFQ$XFQ$XFQ$XFQ$XFQ$XFQ$X"
        24 58 46 51 24 58
        46 51 24 58 46 51
        24 58 46 51 24 58
        46 51 24 58 46 51
        24 58 46 51 24 58
        46 51 24 58 46 51
        24 58 46 51 24 58
        46 51 24 58 46 51
        24 58 46 51 24 58
   1877 60 51 21 21 46 51  3796 	.ascii "`Q!!FQ$X!!$XFQ$XFQ$XFQ$XFQ$XFQ$XFQ$XFQ$XFQ$X!!$XFQ$XFQ$XFQ$X"
        24 58 21 21 24 58
        46 51 24 58 46 51
        24 58 46 51 24 58
        46 51 24 58 46 51
        24 58 46 51 24 58
        46 51 24 58 46 51
        24 58 21 21 24 58
        46 51 24 58 46 51
        24 58 46 51 24 58
   18B3 21 21 24 58 46 51  3797 	.ascii "!!$XFQ$XFQ$XFQ$XFQ$X`Q!!!!$X`Q!!!!$XFQ$XFQ$XFQ$XFQ$X!!$XFQ$X"
        24 58 46 51 24 58
        46 51 24 58 46 51
        24 58 60 51 21 21
        21 21 24 58 60 51
        21 21 21 21 24 58
        46 51 24 58 46 51
        24 58 46 51 24 58
        46 51 24 58 21 21
        24 58 46 51 24 58
   18EF 21 21 24 58 60 51  3798 	.ascii "!!$X`Q!!!!$XFQ$X!!$X`Q!!!!$XFQ$XFQ$X!!$X`Q!!FQ$X!!$XFQ$XFQ$X"
        21 21 21 21 24 58
        46 51 24 58 21 21
        24 58 60 51 21 21
        21 21 24 58 46 51
        24 58 46 51 24 58
        21 21 24 58 60 51
        21 21 46 51 24 58
        21 21 24 58 46 51
        24 58 46 51 24 58
   192B 46 51 24 58 46 51  3799 	.ascii "FQ$XFQ$X!!$X`Q!!!!$XFQ$X!!$XFQ$XFQ$XFQ$X!!$XFQ$XFQ$X!!$X`Q!!"
        24 58 21 21 24 58
        60 51 21 21 21 21
        24 58 46 51 24 58
        21 21 24 58 46 51
        24 58 46 51 24 58
        46 51 24 58 21 21
        24 58 46 51 24 58
        46 51 24 58 21 21
        24 58 60 51 21 21
   1967 21 21 24 58 46 51  3800 	.ascii "!!$XFQ$XFQ$XFQ$XFQ$XFQ$XFQ$XFQ$X!!$XFQ$XFQ$XFQ$XFQ$XFQ$XFQ$X"
        24 58 46 51 24 58
        46 51 24 58 46 51
        24 58 46 51 24 58
        46 51 24 58 46 51
        24 58 21 21 24 58
        46 51 24 58 46 51
        24 58 46 51 24 58
        46 51 24 58 46 51
        24 58 46 51 24 58
   19A3 46 51 24 58 46 51  3801 	.ascii "FQ$XFQ$XFQ$XFQ$X!!$XFQ$XFQ$XFQ$XFQ$X!!$XFQ$XFQ$XFQ$XFQ$XFQ$X"
        24 58 46 51 24 58
        46 51 24 58 21 21
        24 58 46 51 24 58
        46 51 24 58 46 51
        24 58 46 51 24 58
        21 21 24 58 46 51
        24 58 46 51 24 58
        46 51 24 58 46 51
        24 58 46 51 24 58
   19DF 46 51 24 58 46 51  3802 	.ascii "FQ$XFQ$XFQ$X!!$XFQ$XFQ$XFQ$XFQ$XFQ$XFQ$X`Q!!FQ$XFQ$X!!$X`Q!!"
        24 58 46 51 24 58
        21 21 24 58 46 51
        24 58 46 51 24 58
        46 51 24 58 46 51
        24 58 46 51 24 58
        46 51 24 58 60 51
        21 21 46 51 24 58
        46 51 24 58 21 21
        24 58 60 51 21 21
   1A1B 21 21 24 58 46 51  3803 	.ascii "!!$XFQ$XFQ$XFQ$XFQ$XFQ$XFQ$X!!$X`Q!!!!$XFQ$XFQ$XFQ$XFQ$XFQ$X"
        24 58 46 51 24 58
        46 51 24 58 46 51
        24 58 46 51 24 58
        46 51 24 58 21 21
        24 58 60 51 21 21
        21 21 24 58 46 51
        24 58 46 51 24 58
        46 51 24 58 46 51
        24 58 46 51 24 58
   1A57 21 21 21 21 46 51  3804 	.ascii "!!!!FQ$XFQ$XFQ$X!!$XFQ$XFQ$XFQ$XFQ$XFQ$XFQ$XFQ$XFQ$X!!$XFQ$X"
        24 58 46 51 24 58
        46 51 24 58 21 21
        24 58 46 51 24 58
        46 51 24 58 46 51
        24 58 46 51 24 58
        46 51 24 58 46 51
        24 58 46 51 24 58
        46 51 24 58 21 21
        24 58 46 51 24 58
   1A93 46 51 24 58 21 21  3805 	.ascii "FQ$X!!$XFQ$XFQ$X!!$X`Q!!!!$XFQ$XFQ$XFQ$XFQ$XFQ$XFQ$X!!$XFQ$X"
        24 58 46 51 24 58
        46 51 24 58 21 21
        24 58 60 51 21 21
        21 21 24 58 46 51
        24 58 46 51 24 58
        46 51 24 58 46 51
        24 58 46 51 24 58
        46 51 24 58 21 21
        24 58 46 51 24 58
   1ACF 46 51 24 58 46 51  3806 	.ascii "FQ$XFQ$XFQ$XFQ$XFQ$X!!$X`Q!!!!$XFQ$XFQ$X!!$XFQ$XFQ$XFQ$XFQ$X"
        24 58 46 51 24 58
        46 51 24 58 46 51
        24 58 21 21 24 58
        60 51 21 21 21 21
        24 58 46 51 24 58
        46 51 24 58 21 21
        24 58 46 51 24 58
        46 51 24 58 46 51
        24 58 46 51 24 58
   1B0B 46 51 24 58 46 51  3807 	.ascii "FQ$XFQ$X!!$X`Q!!!!$XFQ$XFQ$XFQ$XFQ$XFQ$XFQ$X!!$XFQ$XFQ$XFQ$X"
        24 58 21 21 24 58
        60 51 21 21 21 21
        24 58 46 51 24 58
        46 51 24 58 46 51
        24 58 46 51 24 58
        46 51 24 58 46 51
        24 58 21 21 24 58
        46 51 24 58 46 51
        24 58 46 51 24 58
   1B47 46 51 24 58 46 51  3808 	.ascii "FQ$XFQ$XFQ$XFQ$X!!$XFQ$XFQ$XFQ$X!!$XFQ$X!!!!!!!!FQ$XFQ$X!!$X"
        24 58 46 51 24 58
        46 51 24 58 21 21
        24 58 46 51 24 58
        46 51 24 58 46 51
        24 58 21 21 24 58
        46 51 24 58 21 21
        21 21 21 21 21 21
        46 51 24 58 46 51
        24 58 21 21 24 58
   1B83 46 51 24 58 46 51  3809 	.ascii "FQ$XFQ$XFQ$XFQ$XFQ$X!!!!FQ$XFQ$X!!$X`Q!!!!$X!!!!!!!!FQ$XFQ$X"
        24 58 46 51 24 58
        46 51 24 58 46 51
        24 58 21 21 21 21
        46 51 24 58 46 51
        24 58 21 21 24 58
        60 51 21 21 21 21
        24 58 21 21 21 21
        21 21 21 21 46 51
        24 58 46 51 24 58
   1BBF 21 21 21 21 21 21  3810 	.ascii "!!!!!!!!FQ$XFQ$X!!!!FQ$X!!!!FQ$XFQ$XFQ$X!!!!FQ$XFQ$XFQ$X!!$X"
        21 21 46 51 24 58
        46 51 24 58 21 21
        21 21 46 51 24 58
        21 21 21 21 46 51
        24 58 46 51 24 58
        46 51 24 58 21 21
        21 21 46 51 24 58
        46 51 24 58 46 51
        24 58 21 21 24 58
   1BFB 46 51 24 58 21 21  3811 	.ascii "FQ$X!!!!!!!!!!!!FQ$X!!!!!!!!FQ$XFQ$X!!!!!!!!!!!!FQ$XFQ$X!!!!"
        21 21 21 21 21 21
        21 21 21 21 46 51
        24 58 21 21 21 21
        21 21 21 21 46 51
        24 58 46 51 24 58
        21 21 21 21 21 21
        21 21 21 21 21 21
        46 51 24 58 46 51
        24 58 21 21 21 21
   1C37 21 21 21 21 21 21  3812 	.ascii "!!!!!!!!!!!!!!!!!!!!!!!!!!!!!!!!!!!!FQ$X"
        21 21 21 21 21 21
        21 21 21 21 21 21
        21 21 21 21 21 21
        21 21 21 21 21 21
        21 21 21 21 21 21
        46 51 24 58
   1C5F 00                 3813 	.db 0x00
   1C60                    3814 ___str_1:
   1C60 21 21 21 21 21 21  3815 	.ascii "!!!!!!!!!!!!'"
        21 21 21 21 21 21
        27
   1C6D 5C                 3816 	.db 0x5C
   1C6E 35 21 21 21 21 21  3817 	.ascii "5!!!!!!!!!!!!!!!!!!!!!!!!!!!!!!!!!!!!!!!!!!!!!"
        21 21 21 21 21 21
        21 21 21 21 21 21
        21 21 21 21 21 21
        21 21 21 21 21 21
        21 21 21 21 21 21
        21 21 21 21 21 21
        21 21 21 21
   1C9C 21 21 21 21 27     3818 	.ascii "!!!!'"
   1CA1 5C                 3819 	.db 0x5C
   1CA2 35 21 21 21 21 21  3820 	.ascii "5!!!!!!!!!!!!!!!!!!!!!(==!(^=!!!!!!!!!!!!!!!!!!!!!!!!!"
        21 21 21 21 21 21
        21 21 21 21 21 21
        21 21 21 21 28 3D
        3D 21 28 5E 3D 21
        21 21 21 21 21 21
        21 21 21 21 21 21
        21 21 21 21 21 21
        21 21 21 21 21 21
   1CD8 21 21 21 21 21 21  3821 	.ascii "!!!!!!!!!!!!!!!!!!!!!!!!(^=!(==!!!!!!!!!!!!!'"
        21 21 21 21 21 21
        21 21 21 21 21 21
        21 21 21 21 21 21
        28 5E 3D 21 28 3D
        3D 21 21 21 21 21
        21 21 21 21 21 21
        21 21 27
   1D05 5C                 3822 	.db 0x5C
   1D06 4D 21 29 3E 5D 21  3823 	.ascii "M!)>]!(--!!!!!"
        28 2D 2D 21 21 21
        21 21
   1D14 21 21 21 21 21 21  3824 	.ascii "!!!!!!!![/E#C@!!1?-!``]!``]!``]!!!!!!!!!!!!!(--!)>]!'"
        21 21 5B 2F 45 23
        43 40 21 21 31 3F
        2D 21 60 60 5D 21
        60 60 5D 21 60 60
        5D 21 21 21 21 21
        21 21 21 21 21 21
        21 21 28 2D 2D 21
        29 3E 5D 21 27
   1D49 5C                 3825 	.db 0x5C
   1D4A 4D 21 21 21 21 21  3826 	.ascii "M!!!!!"
   1D50 21 21 21 21 46 60  3827 	.ascii "!!!!F`]!&J5!(-Y!!!!!`Q$XWAX.7=E>A`I!Y`M!``]!H@Y!6]E>WAX.`Q$X"
        5D 21 26 4A 35 21
        28 2D 59 21 21 21
        21 21 60 51 24 58
        57 41 58 2E 37 3D
        45 3E 41 60 49 21
        59 60 4D 21 60 60
        5D 21 48 40 59 21
        36 5D 45 3E 57 41
        58 2E 60 51 24 58
   1D8C 21 21 21 21 28 2D  3828 	.ascii "!!!!(-Y!&J5!F`]!!!!!!!!!!!!!%HM!(NE!!!!!`Q$X`Q$X$-96A09!``]!"
        59 21 26 4A 35 21
        46 60 5D 21 21 21
        21 21 21 21 21 21
        21 21 21 21 25 48
        4D 21 28 4E 45 21
        21 21 21 21 60 51
        24 58 60 51 24 58
        24 2D 39 36 41 30
        39 21 60 60 5D 21
   1DC8 60 60 5D 21 3E 60  3829 	.ascii "``]!>`1!$=96`Q$X`Q$X!!!!(NE!%HM!!!!!!!!!!!!!!!!!%89!(=5!!!!!"
        31 21 24 3D 39 36
        60 51 24 58 60 51
        24 58 21 21 21 21
        28 4E 45 21 25 48
        4D 21 21 21 21 21
        21 21 21 21 21 21
        21 21 21 21 21 21
        25 38 39 21 28 3D
        35 21 21 21 21 21
   1E04 25 27 51 21 29 5F  3830 	.ascii "%'Q!)_9!(^]!FO]!``]!``]!F?]!(N]!)_9!%'Q!!!!!(=5!%89!!!!!!!!!"
        39 21 28 5E 5D 21
        46 4F 5D 21 60 60
        5D 21 60 60 5D 21
        46 3F 5D 21 28 4E
        5D 21 29 5F 39 21
        25 27 51 21 21 21
        21 21 28 3D 35 21
        25 38 39 21 21 21
        21 21 21 21 21 21
   1E40 21 21 21 21 21 21  3831 	.ascii "!!!!!!!!!!!!F`]!$[=!=/5!U0]!W@I!"
        21 21 21 21 21 21
        46 60 5D 21 24 5B
        3D 21 3D 2F 35 21
        55 30 5D 21 57 40
        49 21
   1E60 5C                 3832 	.db 0x5C
   1E61 60 51 21 60 60 5D  3833 	.ascii "`Q!``]!``]!``]!``]!``]!=?5!"
        21 60 60 5D 21 60
        60 5D 21 60 60 5D
        21 60 60 5D 21 3D
        3F 35 21
   1E7C 24 5B 3D 21 46 60  3834 	.ascii "$[=!F`]!!!!!!!!!!!!!!!!!!!!!!!!!!!!!F`]!G>U!``]!S`=!``]!``]!"
        5D 21 21 21 21 21
        21 21 21 21 21 21
        21 21 21 21 21 21
        21 21 21 21 21 21
        21 21 21 21 21 21
        46 60 5D 21 47 3E
        55 21 60 60 5D 21
        53 60 3D 21 60 60
        5D 21 60 60 5D 21
   1EB8 60 60 5D 21 60 60  3835 	.ascii "``]!``]!``]!``]!F>Q!F`]!!!!!!!!!!!!!!!!!!!!!!!!!!!!!!!!!!!!!"
        5D 21 60 60 5D 21
        60 60 5D 21 46 3E
        51 21 46 60 5D 21
        21 21 21 21 21 21
        21 21 21 21 21 21
        21 21 21 21 21 21
        21 21 21 21 21 21
        21 21 21 21 21 21
        21 21 21 21 21 21
   1EF4 46 60 5D 21 60 60  3836 	.ascii "F`]!``]!,_%!A?Q!``]!``]!``]!``]!``]!F`]!!!!!!!!!!!!!!!!!!!!!"
        5D 21 2C 5F 25 21
        41 3F 51 21 60 60
        5D 21 60 60 5D 21
        60 60 5D 21 60 60
        5D 21 60 60 5D 21
        46 60 5D 21 21 21
        21 21 21 21 21 21
        21 21 21 21 21 21
        21 21 21 21 21 21
   1F30 21 21 21 21 21 21  3837 	.ascii "!!!!!!!!!!!!!!!!!!!!F`]!``]!(.Y!@?Q!``]!``]!`@]!``]!``]!F`]!"
        21 21 21 21 21 21
        21 21 21 21 21 21
        21 21 46 60 5D 21
        60 60 5D 21 28 2E
        59 21 40 3F 51 21
        60 60 5D 21 60 60
        5D 21 60 40 5D 21
        60 60 5D 21 60 60
        5D 21 46 60 5D 21
   1F6C 21 21 21 21 21 21  3838 	.ascii "!!!!!!!!!!!!!!!!!!!!!!!!!!!!!!!!!!!!!!!!F`]!N@5!=/M!BOU!``]!"
        21 21 21 21 21 21
        21 21 21 21 21 21
        21 21 21 21 21 21
        21 21 21 21 21 21
        21 21 21 21 21 21
        21 21 21 21 46 60
        5D 21 4E 40 35 21
        3D 2F 4D 21 42 4F
        55 21 60 60 5D 21
   1FA8 5E 60 59 21 60 60  3839 	.ascii "^`Y!``]!``]!S0=!F`]!!!!!!!!!!!!!!!!!!!!!!!!!!!!!!!!!!!!!!!!!"
        5D 21 60 60 5D 21
        53 30 3D 21 46 60
        5D 21 21 21 21 21
        21 21 21 21 21 21
        21 21 21 21 21 21
        21 21 21 21 21 21
        21 21 21 21 21 21
        21 21 21 21 21 21
        21 21 21 21 21 21
   1FE4 46 60 5D 21 30 5F  3840 	.ascii "F`]!0_-!``]!E/Y!,_!!YPM!``]!ZPQ!0?-!F`]!!!!!!!!!!!!!!!!!!!!!"
        2D 21 60 60 5D 21
        45 2F 59 21 2C 5F
        21 21 59 50 4D 21
        60 60 5D 21 5A 50
        51 21 30 3F 2D 21
        46 60 5D 21 21 21
        21 21 21 21 21 21
        21 21 21 21 21 21
        21 21 21 21 21 21
   2020 21 21 21 21 21 21  3841 	.ascii "!!!!!!!!!!!!!!!!%HA!%]A!)NY!9_A!E?]!``]!``]!PP5!6O9!(^Y!%]A!"
        21 21 21 21 21 21
        21 21 21 21 25 48
        41 21 25 5D 41 21
        29 4E 59 21 39 5F
        41 21 45 3F 5D 21
        60 60 5D 21 60 60
        5D 21 50 50 35 21
        36 4F 39 21 28 5E
        59 21 25 5D 41 21
   205C 25 48 41 21 21 21  3842 	.ascii "%HA!!!!!!!!!!!!!!!!!!!!!!!!!!!!!#UY!)>Y!)>M!&+9!!+9!<L9!``]!"
        21 21 21 21 21 21
        21 21 21 21 21 21
        21 21 21 21 21 21
        21 21 21 21 21 21
        21 21 23 55 59 21
        29 3E 59 21 29 3E
        4D 21 26 2B 39 21
        21 2B 39 21 3C 4C
        39 21 60 60 5D 21
   2098 60 60 5D 21 3A 2C  3843 	.ascii "``]!:,9!!+9!&;9!)>M!)>Y!#UY!!!!!!!!!!!!!!!!!!!!!$WA!)>]!)>]!"
        39 21 21 2B 39 21
        26 3B 39 21 29 3E
        4D 21 29 3E 59 21
        23 55 59 21 21 21
        21 21 21 21 21 21
        21 21 21 21 21 21
        21 21 21 21 21 21
        24 57 41 21 29 3E
        5D 21 29 3E 5D 21
   20D4 29 3E 59 21 21 21  3844 	.ascii ")>Y!!!!!!!!!!!!!!!!!!!!!!!!!!!!!!!!!)>Y!)>]!)>]!$WA!!!!!!!!!"
        21 21 21 21 21 21
        21 21 21 21 21 21
        21 21 21 21 21 21
        21 21 21 21 21 21
        21 21 21 21 21 21
        29 3E 59 21 29 3E
        5D 21 29 3E 5D 21
        24 57 41 21 21 21
        21 21 21 21 21 21
   2110 21 21 21 21 21 21  3845 	.ascii "!!!!!!!!%85!)>Y!)>Y!!!!!!!!!!!!!!!!!!!!!!!!!!!!!!!!!!!!!!!!!"
        21 21 25 38 35 21
        29 3E 59 21 29 3E
        59 21 21 21 21 21
        21 21 21 21 21 21
        21 21 21 21 21 21
        21 21 21 21 21 21
        21 21 21 21 21 21
        21 21 21 21 21 21
        21 21 21 21 21 21
   214C 29 3E 59 21 29 3E  3846 	.ascii ")>Y!)>Y!%85!!!!!!!!!!!!!!!!!&J9!(MM!!!!!!!!!!!!!!!!!!!!!!!!!"
        59 21 25 38 35 21
        21 21 21 21 21 21
        21 21 21 21 21 21
        21 21 21 21 26 4A
        39 21 28 4D 4D 21
        21 21 21 21 21 21
        21 21 21 21 21 21
        21 21 21 21 21 21
        21 21 21 21 21 21
   2188 21 21 21 21 21 21  3847 	.ascii "!!!!!!!!!!!!!!!!!!!!!!!!(MM!&J9!!!!!!!!!!!!!'"
        21 21 21 21 21 21
        21 21 21 21 21 21
        21 21 21 21 21 21
        28 4D 4D 21 26 4A
        39 21 21 21 21 21
        21 21 21 21 21 21
        21 21 27
   21B5 5C                 3848 	.db 0x5C
   21B6 4D 21 29 3E 5D 21  3849 	.ascii "M!)>]!(--!F`]!"
        28 2D 2D 21 46 60
        5D 21
   21C4 21 21 21 21 21 21  3850 	.ascii "!!!!!!!!!!!!!!!!!!!!!!!!!!!!!!!!!!!!!!!!F`]!(--!)>]!'"
        21 21 21 21 21 21
        21 21 21 21 21 21
        21 21 21 21 21 21
        21 21 21 21 21 21
        21 21 21 21 21 21
        21 21 21 21 46 60
        5D 21 28 2D 2D 21
        29 3E 5D 21 27
   21F9 5C                 3851 	.db 0x5C
   21FA 4D 21 21 21 21 21  3852 	.ascii "M!!!!!"
   2200 21 21 21 21 46 60  3853 	.ascii "!!!!F`]!(==!(^=!F`]!!!!!!!!!!!!!!!!!!!!!!!!!!!!!!!!!!!!!!!!!"
        5D 21 28 3D 3D 21
        28 5E 3D 21 46 60
        5D 21 21 21 21 21
        21 21 21 21 21 21
        21 21 21 21 21 21
        21 21 21 21 21 21
        21 21 21 21 21 21
        21 21 21 21 21 21
        21 21 21 21 21 21
   223C 46 60 5D 21 28 5E  3854 	.ascii "F`]!(^=!(==!F`]!!!!!!!!!!!!!$W5!'"
        3D 21 28 3D 3D 21
        46 60 5D 21 21 21
        21 21 21 21 21 21
        21 21 21 21 24 57
        35 21 27
   225D 5C                 3855 	.db 0x5C
   225E 35 21 21 21 21 21  3856 	.ascii "5!!!!!!!!!!!!!!!!!!!!!!!!!"
        21 21 21 21 21 21
        21 21 21 21 21 21
        21 21 21 21 21 21
        21 21
   2278 21 21 21 21 21 21  3857 	.ascii "!!!!!!!!!!!!!!!!!!!!!!!!'"
        21 21 21 21 21 21
        21 21 21 21 21 21
        21 21 21 21 21 21
        27
   2291 5C                 3858 	.db 0x5C
   2292 35 21 24 57 35 21  3859 	.ascii "5!$W5!!!!!!!!!"
        21 21 21 21 21 21
        21 21
   22A0 00                 3860 	.db 0x00
   22A1                    3861 ___str_2:
   22A1 21 21 21 21 21 21  3862 	.ascii "!!!!!!!!!!!!!!!!!!!!!!!!!!!!!!!!!!!!!!!!!!!!!!!!!!!!!!!!!!!!"
        21 21 21 21 21 21
        21 21 21 21 21 21
        21 21 21 21 21 21
        21 21 21 21 21 21
        21 21 21 21 21 21
        21 21 21 21 21 21
        21 21 21 21 21 21
        21 21 21 21 21 21
        21 21 21 21 21 21
   22DD 21 21 21 21 21 21  3863 	.ascii "!!!!!!!!!!!!!!!!!!!!!!!!F`]!'"
        21 21 21 21 21 21
        21 21 21 21 21 21
        21 21 21 21 21 21
        46 60 5D 21 27
   22FA 5C                 3864 	.db 0x5C
   22FB 4D 21 21 21 21 21  3865 	.ascii "M!!!!!!!!!!!!!!!!!!!!!!!!!!!!!"
        21 21 21 21 21 21
        21 21 21 21 21 21
        21 21 21 21 21 21
        21 21 21 21 21 21
   2319 21 21 21 21 21 21  3866 	.ascii "!!!!!!!!!!!!!!!!!!!!!!!!F`]!'"
        21 21 21 21 21 21
        21 21 21 21 21 21
        21 21 21 21 21 21
        46 60 5D 21 27
   2336 5C                 3867 	.db 0x5C
   2337 4D 21 21 21 21 21  3868 	.ascii "M!!!!!!!!!$W5!(==!)>]!&J9!%85!"
        21 21 21 21 24 57
        35 21 28 3D 3D 21
        29 3E 5D 21 26 4A
        39 21 25 38 35 21
   2355 24 57 41 21 21 21  3869 	.ascii "$WA!!!!!!!!!!!!!!!!!!!!!!!!!!!!!!!!!%89!%HM!&J5!)>]!(==!!!!!"
        21 21 21 21 21 21
        21 21 21 21 21 21
        21 21 21 21 21 21
        21 21 21 21 21 21
        21 21 21 21 21 21
        25 38 39 21 25 48
        4D 21 26 4A 35 21
        29 3E 5D 21 28 3D
        3D 21 21 21 21 21
   2391 27                 3870 	.ascii "'"
   2392 5C                 3871 	.db 0x5C
   2393 35 21 28 5E 3D 21  3872 	.ascii "5!(^=!(--!(MM!)>Y!)>]!#UY!!!!!!!!!!!!!!!!!!!!!!!!!F`]!(=5!"
        28 2D 2D 21 28 4D
        4D 21 29 3E 59 21
        29 3E 5D 21 23 55
        59 21 21 21 21 21
        21 21 21 21 21 21
        21 21 21 21 21 21
        21 21 21 21 21 21
        21 21 46 60 5D 21
        28 3D 35 21
   23CD 28 4E 45 21 28 2D  3873 	.ascii "(NE!(-Y!(--!(^=!'"
        59 21 28 2D 2D 21
        28 5E 3D 21 27
   23DE 5C                 3874 	.db 0x5C
   23DF 35 21 21 21 21 21  3875 	.ascii "5!!!!!F`]!F`]!!!!!)>Y!)>]!)>Y!%HA!!!!!!!!!"
        46 60 5D 21 46 60
        5D 21 21 21 21 21
        29 3E 59 21 29 3E
        5D 21 29 3E 59 21
        25 48 41 21 21 21
        21 21 21 21 21 21
   2409 21 21 21 21 21 21  3876 	.ascii "!!!!!!!!F`]!$[=!!!!!!!!!!!!!!!!!!!!!!!!!!!!!!!!!!!!!!!!!!!!!"
        21 21 46 60 5D 21
        24 5B 3D 21 21 21
        21 21 21 21 21 21
        21 21 21 21 21 21
        21 21 21 21 21 21
        21 21 21 21 21 21
        21 21 21 21 21 21
        21 21 21 21 21 21
        21 21 21 21 21 21
   2445 29 3E 59 21 29 3E  3877 	.ascii ")>Y!)>M!%]A!F`]!F`]!F`]!F`]!G>U!=/5!%'Q!`Q$X`Q$X!!!!!!!!!!!!"
        4D 21 25 5D 41 21
        46 60 5D 21 46 60
        5D 21 46 60 5D 21
        46 60 5D 21 47 3E
        55 21 3D 2F 35 21
        25 27 51 21 60 51
        24 58 60 51 24 58
        21 21 21 21 21 21
        21 21 21 21 21 21
   2481 21 21 21 21 21 21  3878 	.ascii "!!!!!!!!!!!!!!!!!!!!!!!!&+9!)NY!0_-!N@5!``]!``]!``]!U0]!)_9!"
        21 21 21 21 21 21
        21 21 21 21 21 21
        21 21 21 21 21 21
        26 2B 39 21 29 4E
        59 21 30 5F 2D 21
        4E 40 35 21 60 60
        5D 21 60 60 5D 21
        60 60 5D 21 55 30
        5D 21 29 5F 39 21
   24BD 60 51 24 58 57 41  3879 	.ascii "`Q$XWAX.!!!!!!!!!!!!!!!!!!!!!!!!!!!!!!!!!!!!!+9!9_A!``]!=/M!"
        58 2E 21 21 21 21
        21 21 21 21 21 21
        21 21 21 21 21 21
        21 21 21 21 21 21
        21 21 21 21 21 21
        21 21 21 21 21 21
        21 21 21 2B 39 21
        39 5F 41 21 60 60
        5D 21 3D 2F 4D 21
   24F9 28 2E 59 21 2C 5F  3880 	.ascii "(.Y!,_%!S`=!W@I!(^]!$-967=E>[/E#!!!!!!!!!!!!!!!!!!!!!!!!!!!!"
        25 21 53 60 3D 21
        57 40 49 21 28 5E
        5D 21 24 2D 39 36
        37 3D 45 3E 5B 2F
        45 23 21 21 21 21
        21 21 21 21 21 21
        21 21 21 21 21 21
        21 21 21 21 21 21
        21 21 21 21 21 21
   2535 21 21 21 21 3C 4C  3881 	.ascii "!!!!<L9!E?]!E/Y!BOU!@?Q!A?Q!``]!"
        39 21 45 3F 5D 21
        45 2F 59 21 42 4F
        55 21 40 3F 51 21
        41 3F 51 21 60 60
        5D 21
   2555 5C                 3882 	.db 0x5C
   2556 60 51 21 46 4F 5D  3883 	.ascii "`Q!FO]!A09!A`I!C@!!!!!!!!!!"
        21 41 30 39 21 41
        60 49 21 43 40 21
        21 21 21 21 21 21
        21 21 21
   2571 21 21 21 21 21 21  3884 	.ascii "!!!!!!!!!!!!!!!!!!!!!!!!``]!``]!,_!!``]!``]!``]!``]!``]!``]!"
        21 21 21 21 21 21
        21 21 21 21 21 21
        21 21 21 21 21 21
        60 60 5D 21 60 60
        5D 21 2C 5F 21 21
        60 60 5D 21 60 60
        5D 21 60 60 5D 21
        60 60 5D 21 60 60
        5D 21 60 60 5D 21
   25AD 60 60 5D 21 59 60  3885 	.ascii "``]!Y`M!1?-!!!!!!!!!!!!!!!!!!!!!!!!!!!!!!!!!``]!``]!YPM!^`Y!"
        4D 21 31 3F 2D 21
        21 21 21 21 21 21
        21 21 21 21 21 21
        21 21 21 21 21 21
        21 21 21 21 21 21
        21 21 21 21 21 21
        21 21 60 60 5D 21
        60 60 5D 21 59 50
        4D 21 5E 60 59 21
   25E9 60 60 5D 21 60 60  3886 	.ascii "``]!``]!``]!``]!``]!``]!``]!``]!!!!!!!!!!!!!!!!!!!!!!!!!!!!!"
        5D 21 60 60 5D 21
        60 60 5D 21 60 60
        5D 21 60 60 5D 21
        60 60 5D 21 60 60
        5D 21 21 21 21 21
        21 21 21 21 21 21
        21 21 21 21 21 21
        21 21 21 21 21 21
        21 21 21 21 21 21
   2625 21 21 21 21 3A 2C  3887 	.ascii "!!!!:,9!PP5!``]!``]!`@]!``]!``]!``]!F?]!>`1!H@Y!``]!!!!!!!!!"
        39 21 50 50 35 21
        60 60 5D 21 60 60
        5D 21 60 40 5D 21
        60 60 5D 21 60 60
        5D 21 60 60 5D 21
        46 3F 5D 21 3E 60
        31 21 48 40 59 21
        60 60 5D 21 21 21
        21 21 21 21 21 21
   2661 21 21 21 21 21 21  3888 	.ascii "!!!!!!!!!!!!!!!!!!!!!!!!!+9!6O9!ZPQ!``]!``]!``]!``]!``]!(N]!"
        21 21 21 21 21 21
        21 21 21 21 21 21
        21 21 21 21 21 21
        21 2B 39 21 36 4F
        39 21 5A 50 51 21
        60 60 5D 21 60 60
        5D 21 60 60 5D 21
        60 60 5D 21 60 60
        5D 21 28 4E 5D 21
   269D 24 3D 39 36 36 5D  3889 	.ascii "$=966]E>``]!!!!!!!!!!!!!!!!!!!!!!!!!!!!!!!!!&;9!(^Y!0?-!S0=!"
        45 3E 60 60 5D 21
        21 21 21 21 21 21
        21 21 21 21 21 21
        21 21 21 21 21 21
        21 21 21 21 21 21
        21 21 21 21 21 21
        21 21 26 3B 39 21
        28 5E 59 21 30 3F
        2D 21 53 30 3D 21
   26D9 60 60 5D 21 60 60  3890 	.ascii "``]!``]!``]!``]!)_9!`Q$XWAX.!!!!!!!!!!!!!!!!!!!!!!!!!!!!!!!!"
        5D 21 60 60 5D 21
        60 60 5D 21 29 5F
        39 21 60 51 24 58
        57 41 58 2E 21 21
        21 21 21 21 21 21
        21 21 21 21 21 21
        21 21 21 21 21 21
        21 21 21 21 21 21
        21 21 21 21 21 21
   2715 29 3E 59 21 29 3E  3891 	.ascii ")>Y!)>M!%]A!F`]!F`]!F`]!F`]!F>Q!=?5!%'Q!`Q$X`Q$X!!!!!!!!!!!!"
        4D 21 25 5D 41 21
        46 60 5D 21 46 60
        5D 21 46 60 5D 21
        46 60 5D 21 46 3E
        51 21 3D 3F 35 21
        25 27 51 21 60 51
        24 58 60 51 24 58
        21 21 21 21 21 21
        21 21 21 21 21 21
   2751 21 21 21 21 46 60  3892 	.ascii "!!!!F`]!F`]!!!!!)>Y!)>]!)>Y!%HA!!!!!!!!!!!!!!!!!F`]!$[=!!!!!"
        5D 21 46 60 5D 21
        21 21 21 21 29 3E
        59 21 29 3E 5D 21
        29 3E 59 21 25 48
        41 21 21 21 21 21
        21 21 21 21 21 21
        21 21 21 21 21 21
        46 60 5D 21 24 5B
        3D 21 21 21 21 21
   278D 21 21 21 21 21 21  3893 	.ascii "!!!!!!!!!!!!!!!!!!!!'"
        21 21 21 21 21 21
        21 21 21 21 21 21
        21 21 27
   27A2 5C                 3894 	.db 0x5C
   27A3 35 21 28 5E 3D 21  3895 	.ascii "5!(^=!(--!(MM!)>Y!)>]!#UY!!!!!!!!!!!!!"
        28 2D 2D 21 28 4D
        4D 21 29 3E 59 21
        29 3E 5D 21 23 55
        59 21 21 21 21 21
        21 21 21 21 21 21
        21 21
   27C9 21 21 21 21 21 21  3896 	.ascii "!!!!!!!!!!!!F`]!(=5!(NE!(-Y!(--!(^=!'"
        21 21 21 21 21 21
        46 60 5D 21 28 3D
        35 21 28 4E 45 21
        28 2D 59 21 28 2D
        2D 21 28 5E 3D 21
        27
   27EE 5C                 3897 	.db 0x5C
   27EF 35 21 24 57 35 21  3898 	.ascii "5!$W5!(==!)>]!&J9!%85!"
        28 3D 3D 21 29 3E
        5D 21 26 4A 39 21
        25 38 35 21
   2805 24 57 41 21 21 21  3899 	.ascii "$WA!!!!!!!!!!!!!!!!!!!!!!!!!!!!!!!!!%89!%HM!&J5!)>]!(==!!!!!"
        21 21 21 21 21 21
        21 21 21 21 21 21
        21 21 21 21 21 21
        21 21 21 21 21 21
        21 21 21 21 21 21
        25 38 39 21 25 48
        4D 21 26 4A 35 21
        29 3E 5D 21 28 3D
        3D 21 21 21 21 21
   2841 21 21 21 21 46 60  3900 	.ascii "!!!!F`]!'"
        5D 21 27
   284A 5C                 3901 	.db 0x5C
   284B 4D 21 21 21 21 21  3902 	.ascii "M!!!!!!!!!!!!!!!!!!!!!!!!!!!!!!!!!!!!!!!!!!!!!!!!!"
        21 21 21 21 21 21
        21 21 21 21 21 21
        21 21 21 21 21 21
        21 21 21 21 21 21
        21 21 21 21 21 21
        21 21 21 21 21 21
        21 21 21 21 21 21
        21 21
   287D 21 21 21 21 46 60  3903 	.ascii "!!!!F`]!'"
        5D 21 27
   2886 5C                 3904 	.db 0x5C
   2887 4D 21 21 21 21 21  3905 	.ascii "M!!!!!!!!!!!!!!!!!!!!!!!!!!!!!!!!!!!!!!!!!!!!!!!!!"
        21 21 21 21 21 21
        21 21 21 21 21 21
        21 21 21 21 21 21
        21 21 21 21 21 21
        21 21 21 21 21 21
        21 21 21 21 21 21
        21 21 21 21 21 21
        21 21
   28B9 21 21 21 21 21 21  3906 	.ascii "!!!!!!!!!!!!!!!!!!!!!!!!!!!!!!!!!!!!!!!!"
        21 21 21 21 21 21
        21 21 21 21 21 21
        21 21 21 21 21 21
        21 21 21 21 21 21
        21 21 21 21 21 21
        21 21 21 21
   28E1 00                 3907 	.db 0x00
   28E2                    3908 ___str_3:
   28E2 21 21 21 21 21 21  3909 	.ascii "!!!!!!!!$W5!'"
        21 21 24 57 35 21
        27
   28EF 5C                 3910 	.db 0x5C
   28F0 35 21 21 21 21 21  3911 	.ascii "5!!!!!!!!!!!!!!!!!!!!!!!!!!!!!!!!!!!!!!!!!!!!!"
        21 21 21 21 21 21
        21 21 21 21 21 21
        21 21 21 21 21 21
        21 21 21 21 21 21
        21 21 21 21 21 21
        21 21 21 21 21 21
        21 21 21 21
   291E 21 21 21 21 27     3912 	.ascii "!!!!'"
   2923 5C                 3913 	.db 0x5C
   2924 35 21 24 57 35 21  3914 	.ascii "5!$W5!!!!!!!!!!!!!F`]!(==!(^=!F`]!!!!!!!!!!!!!!!!!!!!!"
        21 21 21 21 21 21
        21 21 21 21 21 21
        46 60 5D 21 28 3D
        3D 21 28 5E 3D 21
        46 60 5D 21 21 21
        21 21 21 21 21 21
        21 21 21 21 21 21
        21 21 21 21 21 21
   295A 21 21 21 21 21 21  3915 	.ascii "!!!!!!!!!!!!!!!!!!!!F`]!(^=!(==!F`]!!!!!!!!!'"
        21 21 21 21 21 21
        21 21 21 21 21 21
        21 21 46 60 5D 21
        28 5E 3D 21 28 3D
        3D 21 46 60 5D 21
        21 21 21 21 21 21
        21 21 27
   2987 5C                 3916 	.db 0x5C
   2988 4D 21 29 3E 5D 21  3917 	.ascii "M!)>]!(--!F`]!"
        28 2D 2D 21 46 60
        5D 21
   2996 21 21 21 21 21 21  3918 	.ascii "!!!!!!!!!!!!!!!!!!!!!!!!!!!!!!!!!!!!!!!!F`]!(--!)>]!'"
        21 21 21 21 21 21
        21 21 21 21 21 21
        21 21 21 21 21 21
        21 21 21 21 21 21
        21 21 21 21 21 21
        21 21 21 21 46 60
        5D 21 28 2D 2D 21
        29 3E 5D 21 27
   29CB 5C                 3919 	.db 0x5C
   29CC 4D 21 21 21 21 21  3920 	.ascii "M!!!!!"
   29D2 21 21 21 21 21 21  3921 	.ascii "!!!!!!!!&J9!(MM!!!!!!!!!!!!!!!!!!!!!!!!!!!!!!!!!!!!!!!!!!!!!"
        21 21 26 4A 39 21
        28 4D 4D 21 21 21
        21 21 21 21 21 21
        21 21 21 21 21 21
        21 21 21 21 21 21
        21 21 21 21 21 21
        21 21 21 21 21 21
        21 21 21 21 21 21
        21 21 21 21 21 21
   2A0E 21 21 21 21 28 4D  3922 	.ascii "!!!!(MM!&J9!!!!!!!!!!!!!!!!!%85!)>Y!)>Y!!!!!!!!!!!!!!!!!!!!!"
        4D 21 26 4A 39 21
        21 21 21 21 21 21
        21 21 21 21 21 21
        21 21 21 21 25 38
        35 21 29 3E 59 21
        29 3E 59 21 21 21
        21 21 21 21 21 21
        21 21 21 21 21 21
        21 21 21 21 21 21
   2A4A 21 21 21 21 21 21  3923 	.ascii "!!!!!!!!!!!!!!!!!!!!)>Y!)>Y!%85!!!!!!!!!!!!!!!!!$WA!)>]!)>]!"
        21 21 21 21 21 21
        21 21 21 21 21 21
        21 21 29 3E 59 21
        29 3E 59 21 25 38
        35 21 21 21 21 21
        21 21 21 21 21 21
        21 21 21 21 21 21
        24 57 41 21 29 3E
        5D 21 29 3E 5D 21
   2A86 29 3E 59 21 21 21  3924 	.ascii ")>Y!!!!!!!!!!!!!!!!!!!!!!!!!!!!!!!!!)>Y!)>]!)>]!$WA!!!!!!!!!"
        21 21 21 21 21 21
        21 21 21 21 21 21
        21 21 21 21 21 21
        21 21 21 21 21 21
        21 21 21 21 21 21
        29 3E 59 21 29 3E
        5D 21 29 3E 5D 21
        24 57 41 21 21 21
        21 21 21 21 21 21
   2AC2 21 21 21 21 21 21  3925 	.ascii "!!!!!!!!!!!!#UY!)>Y!)>M!&;9!!+9!:,9!``]!``]!<L9!!+9!&+9!)>M!"
        21 21 21 21 21 21
        23 55 59 21 29 3E
        59 21 29 3E 4D 21
        26 3B 39 21 21 2B
        39 21 3A 2C 39 21
        60 60 5D 21 60 60
        5D 21 3C 4C 39 21
        21 2B 39 21 26 2B
        39 21 29 3E 4D 21
   2AFE 29 3E 59 21 23 55  3926 	.ascii ")>Y!#UY!!!!!!!!!!!!!!!!!!!!!!!!!!!!!%HA!%]A!(^Y!6O9!PP5!``]!"
        59 21 21 21 21 21
        21 21 21 21 21 21
        21 21 21 21 21 21
        21 21 21 21 21 21
        21 21 21 21 21 21
        25 48 41 21 25 5D
        41 21 28 5E 59 21
        36 4F 39 21 50 50
        35 21 60 60 5D 21
   2B3A 60 60 5D 21 45 3F  3927 	.ascii "``]!E?]!9_A!)NY!%]A!%HA!!!!!!!!!!!!!!!!!!!!!!!!!!!!!!!!!!!!!"
        5D 21 39 5F 41 21
        29 4E 59 21 25 5D
        41 21 25 48 41 21
        21 21 21 21 21 21
        21 21 21 21 21 21
        21 21 21 21 21 21
        21 21 21 21 21 21
        21 21 21 21 21 21
        21 21 21 21 21 21
   2B76 46 60 5D 21 30 3F  3928 	.ascii "F`]!0?-!ZPQ!``]!YPM!,_!!E/Y!``]!0_-!F`]!!!!!!!!!!!!!!!!!!!!!"
        2D 21 5A 50 51 21
        60 60 5D 21 59 50
        4D 21 2C 5F 21 21
        45 2F 59 21 60 60
        5D 21 30 5F 2D 21
        46 60 5D 21 21 21
        21 21 21 21 21 21
        21 21 21 21 21 21
        21 21 21 21 21 21
   2BB2 21 21 21 21 21 21  3929 	.ascii "!!!!!!!!!!!!!!!!!!!!F`]!S0=!``]!``]!^`Y!``]!BOU!=/M!N@5!F`]!"
        21 21 21 21 21 21
        21 21 21 21 21 21
        21 21 46 60 5D 21
        53 30 3D 21 60 60
        5D 21 60 60 5D 21
        5E 60 59 21 60 60
        5D 21 42 4F 55 21
        3D 2F 4D 21 4E 40
        35 21 46 60 5D 21
   2BEE 21 21 21 21 21 21  3930 	.ascii "!!!!!!!!!!!!!!!!!!!!!!!!!!!!!!!!!!!!!!!!F`]!``]!``]!`@]!``]!"
        21 21 21 21 21 21
        21 21 21 21 21 21
        21 21 21 21 21 21
        21 21 21 21 21 21
        21 21 21 21 21 21
        21 21 21 21 46 60
        5D 21 60 60 5D 21
        60 60 5D 21 60 40
        5D 21 60 60 5D 21
   2C2A 60 60 5D 21 40 3F  3931 	.ascii "``]!@?Q!(.Y!``]!F`]!!!!!!!!!!!!!!!!!!!!!!!!!!!!!!!!!!!!!!!!!"
        51 21 28 2E 59 21
        60 60 5D 21 46 60
        5D 21 21 21 21 21
        21 21 21 21 21 21
        21 21 21 21 21 21
        21 21 21 21 21 21
        21 21 21 21 21 21
        21 21 21 21 21 21
        21 21 21 21 21 21
   2C66 46 60 5D 21 60 60  3932 	.ascii "F`]!``]!``]!``]!``]!``]!A?Q!,_%!``]!F`]!!!!!!!!!!!!!!!!!!!!!"
        5D 21 60 60 5D 21
        60 60 5D 21 60 60
        5D 21 60 60 5D 21
        41 3F 51 21 2C 5F
        25 21 60 60 5D 21
        46 60 5D 21 21 21
        21 21 21 21 21 21
        21 21 21 21 21 21
        21 21 21 21 21 21
   2CA2 21 21 21 21 21 21  3933 	.ascii "!!!!!!!!!!!!!!!!F`]!F>Q!``]!``]!``]!``]!``]!``]!S`=!``]!G>U!"
        21 21 21 21 21 21
        21 21 21 21 46 60
        5D 21 46 3E 51 21
        60 60 5D 21 60 60
        5D 21 60 60 5D 21
        60 60 5D 21 60 60
        5D 21 60 60 5D 21
        53 60 3D 21 60 60
        5D 21 47 3E 55 21
   2CDE 46 60 5D 21 21 21  3934 	.ascii "F`]!!!!!!!!!!!!!!!!!!!!!!!!!!!!!F`]!$[=!=?5!``]!``]!``]!``]!"
        21 21 21 21 21 21
        21 21 21 21 21 21
        21 21 21 21 21 21
        21 21 21 21 21 21
        21 21 46 60 5D 21
        24 5B 3D 21 3D 3F
        35 21 60 60 5D 21
        60 60 5D 21 60 60
        5D 21 60 60 5D 21
   2D1A 60 60 5D 21        3935 	.ascii "``]!"
   2D1E 5C                 3936 	.db 0x5C
   2D1F 60 51 21 57 40 49  3937 	.ascii "`Q!W@I!U0]!=/5!$[=!F`]!!!!!!!!!!!!!!!!!!!!!%89!(=5!!!!!"
        21 55 30 5D 21 3D
        2F 35 21 24 5B 3D
        21 46 60 5D 21 21
        21 21 21 21 21 21
        21 21 21 21 21 21
        21 21 21 21 21 21
        21 25 38 39 21 28
        3D 35 21 21 21 21
        21
   2D56 25 27 51 21 29 5F  3938 	.ascii "%'Q!)_9!(N]!F?]!``]!``]!FO]!(^]!)_9!%'Q!!!!!(=5!%89!!!!!!!!!"
        39 21 28 4E 5D 21
        46 3F 5D 21 60 60
        5D 21 60 60 5D 21
        46 4F 5D 21 28 5E
        5D 21 29 5F 39 21
        25 27 51 21 21 21
        21 21 28 3D 35 21
        25 38 39 21 21 21
        21 21 21 21 21 21
   2D92 21 21 21 21 21 21  3939 	.ascii "!!!!!!!!%HM!(NE!!!!!`Q$X`Q$X$=96>`1!``]!``]!A09!$-96`Q$X`Q$X"
        21 21 25 48 4D 21
        28 4E 45 21 21 21
        21 21 60 51 24 58
        60 51 24 58 24 3D
        39 36 3E 60 31 21
        60 60 5D 21 60 60
        5D 21 41 30 39 21
        24 2D 39 36 60 51
        24 58 60 51 24 58
   2DCE 21 21 21 21 28 4E  3940 	.ascii "!!!!(NE!%HM!!!!!!!!!!!!!F`]!&J5!(-Y!!!!!`Q$XWAX.6]E>H@Y!``]!"
        45 21 25 48 4D 21
        21 21 21 21 21 21
        21 21 21 21 21 21
        46 60 5D 21 26 4A
        35 21 28 2D 59 21
        21 21 21 21 60 51
        24 58 57 41 58 2E
        36 5D 45 3E 48 40
        59 21 60 60 5D 21
   2E0A 59 60 4D 21 41 60  3941 	.ascii "Y`M!A`I!7=E>WAX.`Q$X!!!!(-Y!&J5!F`]!!!!!!!!!'"
        49 21 37 3D 45 3E
        57 41 58 2E 60 51
        24 58 21 21 21 21
        28 2D 59 21 26 4A
        35 21 46 60 5D 21
        21 21 21 21 21 21
        21 21 27
   2E37 5C                 3942 	.db 0x5C
   2E38 4D 21 29 3E 5D 21  3943 	.ascii "M!)>]!(--!!!!!"
        28 2D 2D 21 21 21
        21 21
   2E46 21 21 21 21 21 21  3944 	.ascii "!!!!!!!!``]!``]!``]!1?-!C@!![/E#!!!!!!!!!!!!(--!)>]!'"
        21 21 60 60 5D 21
        60 60 5D 21 60 60
        5D 21 31 3F 2D 21
        43 40 21 21 5B 2F
        45 23 21 21 21 21
        21 21 21 21 21 21
        21 21 28 2D 2D 21
        29 3E 5D 21 27
   2E7B 5C                 3945 	.db 0x5C
   2E7C 4D 21 21 21 21 21  3946 	.ascii "M!!!!!"
   2E82 21 21 21 21 21 21  3947 	.ascii "!!!!!!!!(==!(^=!!!!!!!!!!!!!!!!!!!!!!!!!!!!!!!!!!!!!!!!!!!!!"
        21 21 28 3D 3D 21
        28 5E 3D 21 21 21
        21 21 21 21 21 21
        21 21 21 21 21 21
        21 21 21 21 21 21
        21 21 21 21 21 21
        21 21 21 21 21 21
        21 21 21 21 21 21
        21 21 21 21 21 21
   2EBE 21 21 21 21 28 5E  3948 	.ascii "!!!!(^=!(==!!!!!!!!!!!!!!!!!!!!!'"
        3D 21 28 3D 3D 21
        21 21 21 21 21 21
        21 21 21 21 21 21
        21 21 21 21 21 21
        21 21 27
   2EDF 5C                 3949 	.db 0x5C
   2EE0 35 21 21 21 21 21  3950 	.ascii "5!!!!!!!!!!!!!!!!!!!!!!!!!"
        21 21 21 21 21 21
        21 21 21 21 21 21
        21 21 21 21 21 21
        21 21
   2EFA 21 21 21 21 21 21  3951 	.ascii "!!!!!!!!!!!!!!!!!!!!!!!!'"
        21 21 21 21 21 21
        21 21 21 21 21 21
        21 21 21 21 21 21
        27
   2F13 5C                 3952 	.db 0x5C
   2F14 35 21 21 21 21 21  3953 	.ascii "5!!!!!!!!!!!!!"
        21 21 21 21 21 21
        21 21
   2F22 00                 3954 	.db 0x00
   2F23                    3955 ___str_4:
   2F23 21 21 21 21 21 21  3956 	.ascii "!!!!!!!!!!!!!!!!!!!!!!!!!!!!!!!!!!!!!!!!!!!!!!!!!!!!!!!!!!!!"
        21 21 21 21 21 21
        21 21 21 21 21 21
        21 21 21 21 21 21
        21 21 21 21 21 21
        21 21 21 21 21 21
        21 21 21 21 21 21
        21 21 21 21 21 21
        21 21 21 21 21 21
        21 21 21 21 21 21
   2F5F 21 21 21 21 21 21  3957 	.ascii "!!!!!!!!!!!!!!!!!!!!!!!!!!!!'"
        21 21 21 21 21 21
        21 21 21 21 21 21
        21 21 21 21 21 21
        21 21 21 21 27
   2F7C 5C                 3958 	.db 0x5C
   2F7D 4D 21 46 60 5D 21  3959 	.ascii "M!F`]!!!!!!!!!!!!!!!!!!!!!!!!!"
        21 21 21 21 21 21
        21 21 21 21 21 21
        21 21 21 21 21 21
        21 21 21 21 21 21
   2F9B 21 21 21 21 21 21  3960 	.ascii "!!!!!!!!!!!!!!!!!!!!!!!!!!!!'"
        21 21 21 21 21 21
        21 21 21 21 21 21
        21 21 21 21 21 21
        21 21 21 21 27
   2FB8 5C                 3961 	.db 0x5C
   2FB9 4D 21 46 60 5D 21  3962 	.ascii "M!F`]!!!!!!!!!(==!)>]!&J5!%HM!"
        21 21 21 21 21 21
        21 21 28 3D 3D 21
        29 3E 5D 21 26 4A
        35 21 25 48 4D 21
   2FD7 25 38 39 21 21 21  3963 	.ascii "%89!!!!!!!!!!!!!!!!!!!!!!!!!!!!!!!!!$WA!%85!&J9!)>]!(==!$W5!"
        21 21 21 21 21 21
        21 21 21 21 21 21
        21 21 21 21 21 21
        21 21 21 21 21 21
        21 21 21 21 21 21
        24 57 41 21 25 38
        35 21 26 4A 39 21
        29 3E 5D 21 28 3D
        3D 21 24 57 35 21
   3013 27                 3964 	.ascii "'"
   3014 5C                 3965 	.db 0x5C
   3015 35 21 28 5E 3D 21  3966 	.ascii "5!(^=!(--!(-Y!(NE!(=5!F`]!!!!!!!!!!!!!!!!!!!!!!!!!#UY!)>]!"
        28 2D 2D 21 28 2D
        59 21 28 4E 45 21
        28 3D 35 21 46 60
        5D 21 21 21 21 21
        21 21 21 21 21 21
        21 21 21 21 21 21
        21 21 21 21 21 21
        21 21 23 55 59 21
        29 3E 5D 21
   304F 29 3E 59 21 28 4D  3967 	.ascii ")>Y!(MM!(--!(^=!'"
        4D 21 28 2D 2D 21
        28 5E 3D 21 27
   3060 5C                 3968 	.db 0x5C
   3061 35 21 21 21 21 21  3969 	.ascii "5!!!!!!!!!!!!!!!!!!!!!!!!!$[=!F`]!!!!!!!!!"
        21 21 21 21 21 21
        21 21 21 21 21 21
        21 21 21 21 21 21
        21 21 24 5B 3D 21
        46 60 5D 21 21 21
        21 21 21 21 21 21
   308B 21 21 21 21 21 21  3970 	.ascii "!!!!!!!!%HA!)>Y!)>]!)>Y!!!!!F`]!F`]!!!!!!!!!!!!!!!!!`Q$X`Q$X"
        21 21 25 48 41 21
        29 3E 59 21 29 3E
        5D 21 29 3E 59 21
        21 21 21 21 46 60
        5D 21 46 60 5D 21
        21 21 21 21 21 21
        21 21 21 21 21 21
        21 21 21 21 60 51
        24 58 60 51 24 58
   30C7 25 27 51 21 3D 3F  3971 	.ascii "%'Q!=?5!F>Q!F`]!F`]!F`]!F`]!%]A!)>M!)>Y!!!!!!!!!!!!!!!!!!!!!"
        35 21 46 3E 51 21
        46 60 5D 21 46 60
        5D 21 46 60 5D 21
        46 60 5D 21 25 5D
        41 21 29 3E 4D 21
        29 3E 59 21 21 21
        21 21 21 21 21 21
        21 21 21 21 21 21
        21 21 21 21 21 21
   3103 21 21 21 21 21 21  3972 	.ascii "!!!!!!!!!!!!WAX.`Q$X)_9!``]!``]!``]!``]!S0=!0?-!(^Y!&;9!!!!!"
        21 21 21 21 21 21
        57 41 58 2E 60 51
        24 58 29 5F 39 21
        60 60 5D 21 60 60
        5D 21 60 60 5D 21
        60 60 5D 21 53 30
        3D 21 30 3F 2D 21
        28 5E 59 21 26 3B
        39 21 21 21 21 21
   313F 21 21 21 21 21 21  3973 	.ascii "!!!!!!!!!!!!!!!!!!!!!!!!!!!!``]!6]E>$=96(N]!``]!``]!``]!``]!"
        21 21 21 21 21 21
        21 21 21 21 21 21
        21 21 21 21 21 21
        21 21 21 21 60 60
        5D 21 36 5D 45 3E
        24 3D 39 36 28 4E
        5D 21 60 60 5D 21
        60 60 5D 21 60 60
        5D 21 60 60 5D 21
   317B 60 60 5D 21 5A 50  3974 	.ascii "``]!ZPQ!6O9!!+9!!!!!!!!!!!!!!!!!!!!!!!!!!!!!!!!!``]!H@Y!>`1!"
        51 21 36 4F 39 21
        21 2B 39 21 21 21
        21 21 21 21 21 21
        21 21 21 21 21 21
        21 21 21 21 21 21
        21 21 21 21 21 21
        21 21 21 21 21 21
        60 60 5D 21 48 40
        59 21 3E 60 31 21
   31B7 46 3F 5D 21 60 60  3975 	.ascii "F?]!``]!``]!``]!`@]!``]!``]!PP5!:,9!!!!!!!!!!!!!!!!!!!!!!!!!"
        5D 21 60 60 5D 21
        60 60 5D 21 60 40
        5D 21 60 60 5D 21
        60 60 5D 21 50 50
        35 21 3A 2C 39 21
        21 21 21 21 21 21
        21 21 21 21 21 21
        21 21 21 21 21 21
        21 21 21 21 21 21
   31F3 21 21 21 21 21 21  3976 	.ascii "!!!!!!!!``]!``]!``]!``]!``]!``]!``]!``]!^`Y!YPM!``]!``]!!!!!"
        21 21 60 60 5D 21
        60 60 5D 21 60 60
        5D 21 60 60 5D 21
        60 60 5D 21 60 60
        5D 21 60 60 5D 21
        60 60 5D 21 5E 60
        59 21 59 50 4D 21
        60 60 5D 21 60 60
        5D 21 21 21 21 21
   322F 21 21 21 21 21 21  3977 	.ascii "!!!!!!!!!!!!!!!!!!!!!!!!!!!!1?-!Y`M!``]!``]!``]!``]!``]!``]!"
        21 21 21 21 21 21
        21 21 21 21 21 21
        21 21 21 21 21 21
        21 21 21 21 31 3F
        2D 21 59 60 4D 21
        60 60 5D 21 60 60
        5D 21 60 60 5D 21
        60 60 5D 21 60 60
        5D 21 60 60 5D 21
   326B 60 60 5D 21 2C 5F  3978 	.ascii "``]!,_!!``]!``]!!!!!!!!!!!!!!!!!!!!!!!!!!!!!!!!!C@!!A`I!A09!"
        21 21 60 60 5D 21
        60 60 5D 21 21 21
        21 21 21 21 21 21
        21 21 21 21 21 21
        21 21 21 21 21 21
        21 21 21 21 21 21
        21 21 21 21 21 21
        43 40 21 21 41 60
        49 21 41 30 39 21
   32A7 46 4F 5D 21        3979 	.ascii "FO]!"
   32AB 5C                 3980 	.db 0x5C
   32AC 60 51 21 60 60 5D  3981 	.ascii "`Q!``]!A?Q!@?Q!BOU!E/Y!E?]!<L9!!!!!!!!!!!!!!!!!!!!!!!!!"
        21 41 3F 51 21 40
        3F 51 21 42 4F 55
        21 45 2F 59 21 45
        3F 5D 21 3C 4C 39
        21 21 21 21 21 21
        21 21 21 21 21 21
        21 21 21 21 21 21
        21 21 21 21 21 21
        21
   32E3 21 21 21 21 21 21  3982 	.ascii "!!!!!!!![/E#7=E>$-96(^]!W@I!S`=!,_%!(.Y!=/M!``]!9_A!!+9!!!!!"
        21 21 5B 2F 45 23
        37 3D 45 3E 24 2D
        39 36 28 5E 5D 21
        57 40 49 21 53 60
        3D 21 2C 5F 25 21
        28 2E 59 21 3D 2F
        4D 21 60 60 5D 21
        39 5F 41 21 21 2B
        39 21 21 21 21 21
   331F 21 21 21 21 21 21  3983 	.ascii "!!!!!!!!!!!!!!!!!!!!!!!!!!!!!!!!WAX.`Q$X)_9!U0]!``]!``]!``]!"
        21 21 21 21 21 21
        21 21 21 21 21 21
        21 21 21 21 21 21
        21 21 21 21 21 21
        21 21 57 41 58 2E
        60 51 24 58 29 5F
        39 21 55 30 5D 21
        60 60 5D 21 60 60
        5D 21 60 60 5D 21
   335B 4E 40 35 21 30 5F  3984 	.ascii "N@5!0_-!)NY!&+9!!!!!!!!!!!!!!!!!!!!!!!!!!!!!!!!!!!!!`Q$X`Q$X"
        2D 21 29 4E 59 21
        26 2B 39 21 21 21
        21 21 21 21 21 21
        21 21 21 21 21 21
        21 21 21 21 21 21
        21 21 21 21 21 21
        21 21 21 21 21 21
        21 21 21 21 60 51
        24 58 60 51 24 58
   3397 25 27 51 21 3D 2F  3985 	.ascii "%'Q!=/5!G>U!F`]!F`]!F`]!F`]!%]A!)>M!)>Y!!!!!!!!!!!!!!!!!!!!!"
        35 21 47 3E 55 21
        46 60 5D 21 46 60
        5D 21 46 60 5D 21
        46 60 5D 21 25 5D
        41 21 29 3E 4D 21
        29 3E 59 21 21 21
        21 21 21 21 21 21
        21 21 21 21 21 21
        21 21 21 21 21 21
   33D3 21 21 21 21 21 21  3986 	.ascii "!!!!!!!!!!!!!!!!!!!!!!!!$[=!F`]!!!!!!!!!!!!!!!!!%HA!)>Y!)>]!"
        21 21 21 21 21 21
        21 21 21 21 21 21
        21 21 21 21 21 21
        24 5B 3D 21 46 60
        5D 21 21 21 21 21
        21 21 21 21 21 21
        21 21 21 21 21 21
        25 48 41 21 29 3E
        59 21 29 3E 5D 21
   340F 29 3E 59 21 21 21  3987 	.ascii ")>Y!!!!!F`]!F`]!!!!!'"
        21 21 46 60 5D 21
        46 60 5D 21 21 21
        21 21 27
   3424 5C                 3988 	.db 0x5C
   3425 35 21 28 5E 3D 21  3989 	.ascii "5!(^=!(--!(-Y!(NE!(=5!F`]!!!!!!!!!!!!!"
        28 2D 2D 21 28 2D
        59 21 28 4E 45 21
        28 3D 35 21 46 60
        5D 21 21 21 21 21
        21 21 21 21 21 21
        21 21
   344B 21 21 21 21 21 21  3990 	.ascii "!!!!!!!!!!!!#UY!)>]!)>Y!(MM!(--!(^=!'"
        21 21 21 21 21 21
        23 55 59 21 29 3E
        5D 21 29 3E 59 21
        28 4D 4D 21 28 2D
        2D 21 28 5E 3D 21
        27
   3470 5C                 3991 	.db 0x5C
   3471 35 21 21 21 21 21  3992 	.ascii "5!!!!!(==!)>]!&J5!%HM!"
        28 3D 3D 21 29 3E
        5D 21 26 4A 35 21
        25 48 4D 21
   3487 25 38 39 21 21 21  3993 	.ascii "%89!!!!!!!!!!!!!!!!!!!!!!!!!!!!!!!!!$WA!%85!&J9!)>]!(==!$W5!"
        21 21 21 21 21 21
        21 21 21 21 21 21
        21 21 21 21 21 21
        21 21 21 21 21 21
        21 21 21 21 21 21
        24 57 41 21 25 38
        35 21 26 4A 39 21
        29 3E 5D 21 28 3D
        3D 21 24 57 35 21
   34C3 21 21 21 21 21 21  3994 	.ascii "!!!!!!!!'"
        21 21 27
   34CC 5C                 3995 	.db 0x5C
   34CD 4D 21 46 60 5D 21  3996 	.ascii "M!F`]!!!!!!!!!!!!!!!!!!!!!!!!!!!!!!!!!!!!!!!!!!!!!"
        21 21 21 21 21 21
        21 21 21 21 21 21
        21 21 21 21 21 21
        21 21 21 21 21 21
        21 21 21 21 21 21
        21 21 21 21 21 21
        21 21 21 21 21 21
        21 21
   34FF 21 21 21 21 21 21  3997 	.ascii "!!!!!!!!'"
        21 21 27
   3508 5C                 3998 	.db 0x5C
   3509 4D 21 46 60 5D 21  3999 	.ascii "M!F`]!!!!!!!!!!!!!!!!!!!!!!!!!!!!!!!!!!!!!!!!!!!!!"
        21 21 21 21 21 21
        21 21 21 21 21 21
        21 21 21 21 21 21
        21 21 21 21 21 21
        21 21 21 21 21 21
        21 21 21 21 21 21
        21 21 21 21 21 21
        21 21
   353B 21 21 21 21 21 21  4000 	.ascii "!!!!!!!!!!!!!!!!!!!!!!!!!!!!!!!!!!!!!!!!"
        21 21 21 21 21 21
        21 21 21 21 21 21
        21 21 21 21 21 21
        21 21 21 21 21 21
        21 21 21 21 21 21
        21 21 21 21
   3563 00                 4001 	.db 0x00
                           4002 	.area _INITIALIZER
   0000                    4003 __xinit__width:
   0000 14 00              4004 	.dw #0x0014
   0002                    4005 __xinit__height:
   0002 14 00              4006 	.dw #0x0014
   0004                    4007 __xinit__header_data:
   0004r1Fr16              4008 	.dw ___str_0
   0006                    4009 __xinit__width_Rana:
   0006 14 00              4010 	.dw #0x0014
   0008                    4011 __xinit__height_Rana:
   0008 14 00              4012 	.dw #0x0014
   000A                    4013 __xinit__header_Rana:
   000Ar60r1C              4014 	.dw ___str_1
   000C                    4015 __xinit__width_Rana2:
   000C 14 00              4016 	.dw #0x0014
   000E                    4017 __xinit__height_Rana2:
   000E 14 00              4018 	.dw #0x0014
   0010                    4019 __xinit__header_Rana2:
   0010rA1r22              4020 	.dw ___str_2
   0012                    4021 __xinit__width_Rana3:
   0012 14 00              4022 	.dw #0x0014
   0014                    4023 __xinit__height_Rana3:
   0014 14 00              4024 	.dw #0x0014
   0016                    4025 __xinit__header_Rana3:
   0016rE2r28              4026 	.dw ___str_3
   0018                    4027 __xinit__width_Rana4:
   0018 14 00              4028 	.dw #0x0014
   001A                    4029 __xinit__height_Rana4:
   001A 14 00              4030 	.dw #0x0014
   001C                    4031 __xinit__header_Rana4:
   001Cr23r2F              4032 	.dw ___str_4
                           4033 	.area _CABS (ABS)
